Archive member included because of file (symbol)

/usr/lib/x86_64-linux-gnu/libc_nonshared.a(stat.oS)
                              ./DataSerializationManager.o (stat)

Discarded input sections

 .note.GNU-stack
                0x0000000000000000        0x0 /usr/lib/gcc/x86_64-linux-gnu/4.6/../../../x86_64-linux-gnu/crti.o
 .gnu_debuglink
                0x0000000000000000        0xc /usr/lib/gcc/x86_64-linux-gnu/4.6/../../../x86_64-linux-gnu/crti.o
 .note.GNU-stack
                0x0000000000000000        0x0 /usr/lib/gcc/x86_64-linux-gnu/4.6/crtbeginS.o
 .group         0x0000000000000000        0x8 ./BaseDevice.o
 .group         0x0000000000000000        0x8 ./BaseDevice.o
 .group         0x0000000000000000        0x8 ./BaseDevice.o
 .group         0x0000000000000000        0x8 ./BaseDevice.o
 .group         0x0000000000000000        0x8 ./BaseDevice.o
 .group         0x0000000000000000        0x8 ./BaseDevice.o
 .group         0x0000000000000000        0x8 ./BaseDevice.o
 .group         0x0000000000000000        0x8 ./BaseDevice.o
 .group         0x0000000000000000        0x8 ./BaseDevice.o
 .group         0x0000000000000000        0xc ./BaseDevice.o
 .group         0x0000000000000000        0x8 ./BaseDevice.o
 .group         0x0000000000000000        0x8 ./BaseDevice.o
 .group         0x0000000000000000        0x8 ./BaseDevice.o
 .group         0x0000000000000000        0x8 ./BaseDevice.o
 .group         0x0000000000000000        0x8 ./BaseDevice.o
 .group         0x0000000000000000        0x8 ./BaseDevice.o
 .group         0x0000000000000000        0x8 ./BaseDevice.o
 .group         0x0000000000000000        0x8 ./BaseDevice.o
 .group         0x0000000000000000        0x8 ./BaseDevice.o
 .group         0x0000000000000000        0x8 ./BaseDevice.o
 .group         0x0000000000000000        0x8 ./BaseDevice.o
 .group         0x0000000000000000        0x8 ./BaseDevice.o
 .group         0x0000000000000000        0x8 ./BaseDevice.o
 .group         0x0000000000000000        0x8 ./BaseDevice.o
 .group         0x0000000000000000        0x8 ./BaseDevice.o
 .group         0x0000000000000000        0x8 ./BaseDevice.o
 .group         0x0000000000000000        0x8 ./BaseDevice.o
 .group         0x0000000000000000        0x8 ./BaseDevice.o
 .group         0x0000000000000000        0x8 ./BaseDevice.o
 .group         0x0000000000000000        0x8 ./BaseDevice.o
 .group         0x0000000000000000        0x8 ./BaseDevice.o
 .group         0x0000000000000000        0x8 ./BaseDevice.o
 .group         0x0000000000000000        0x8 ./BaseDevice.o
 .group         0x0000000000000000        0x8 ./BaseDevice.o
 .group         0x0000000000000000        0x8 ./BaseDevice.o
 .group         0x0000000000000000        0x8 ./BaseDevice.o
 .group         0x0000000000000000        0x8 ./BaseDevice.o
 .group         0x0000000000000000        0x8 ./BaseDevice.o
 .group         0x0000000000000000        0x8 ./BaseDevice.o
 .group         0x0000000000000000        0x8 ./BaseDevice.o
 .group         0x0000000000000000        0x8 ./BaseDevice.o
 .group         0x0000000000000000        0x8 ./BaseDevice.o
 .group         0x0000000000000000        0x8 ./BaseDevice.o
 .group         0x0000000000000000        0x8 ./BaseDevice.o
 .group         0x0000000000000000        0x8 ./BaseDevice.o
 .group         0x0000000000000000        0x8 ./BaseDevice.o
 .group         0x0000000000000000        0x8 ./BaseDevice.o
 .group         0x0000000000000000        0x8 ./BaseDevice.o
 .group         0x0000000000000000        0x8 ./BaseDevice.o
 .group         0x0000000000000000        0x8 ./BaseDevice.o
 .group         0x0000000000000000        0x8 ./BaseDevice.o
 .group         0x0000000000000000        0x8 ./BaseDevice.o
 .group         0x0000000000000000        0x8 ./BaseDevice.o
 .group         0x0000000000000000        0x8 ./BaseDevice.o
 .group         0x0000000000000000        0x8 ./BaseDevice.o
 .group         0x0000000000000000        0x8 ./BaseDevice.o
 .group         0x0000000000000000        0x8 ./BaseDevice.o
 .group         0x0000000000000000        0x8 ./BaseDevice.o
 .group         0x0000000000000000        0x8 ./BaseDevice.o
 .group         0x0000000000000000        0x8 ./BaseDevice.o
 .group         0x0000000000000000        0x8 ./BaseDevice.o
 .group         0x0000000000000000        0x8 ./BaseDevice.o
 .group         0x0000000000000000        0x8 ./BaseDevice.o
 .group         0x0000000000000000        0x8 ./BaseDevice.o
 .group         0x0000000000000000        0x8 ./BaseDevice.o
 .group         0x0000000000000000        0x8 ./BaseDevice.o
 .group         0x0000000000000000        0x8 ./BaseDevice.o
 .group         0x0000000000000000        0x8 ./BaseDevice.o
 .group         0x0000000000000000        0x8 ./BaseDevice.o
 .group         0x0000000000000000        0x8 ./BaseDevice.o
 .group         0x0000000000000000        0x8 ./BaseDevice.o
 .group         0x0000000000000000        0x8 ./BaseDevice.o
 .group         0x0000000000000000        0x8 ./BaseDevice.o
 .group         0x0000000000000000        0x8 ./BaseDevice.o
 .group         0x0000000000000000        0x8 ./BaseDevice.o
 .group         0x0000000000000000        0x8 ./BaseDevice.o
 .group         0x0000000000000000        0x8 ./BaseDevice.o
 .group         0x0000000000000000        0x8 ./BaseDevice.o
 .group         0x0000000000000000        0x8 ./BaseDevice.o
 .group         0x0000000000000000        0x8 ./BaseDevice.o
 .group         0x0000000000000000        0x8 ./BaseDevice.o
 .group         0x0000000000000000        0x8 ./BaseDevice.o
 .group         0x0000000000000000        0x8 ./BaseDevice.o
 .group         0x0000000000000000        0x8 ./BaseDevice.o
 .group         0x0000000000000000        0x8 ./BaseDevice.o
 .group         0x0000000000000000        0x8 ./BaseDevice.o
 .group         0x0000000000000000        0x8 ./BaseDevice.o
 .group         0x0000000000000000        0x8 ./BaseDevice.o
 .group         0x0000000000000000        0x8 ./BaseDevice.o
 .group         0x0000000000000000        0x8 ./BaseDevice.o
 .group         0x0000000000000000        0x8 ./BaseDevice.o
 .group         0x0000000000000000        0x8 ./BaseDevice.o
 .group         0x0000000000000000        0x8 ./BaseDevice.o
 .group         0x0000000000000000        0x8 ./BaseDevice.o
 .group         0x0000000000000000        0x8 ./BaseDevice.o
 .group         0x0000000000000000        0x8 ./BaseDevice.o
 .group         0x0000000000000000        0x8 ./BaseDevice.o
 .group         0x0000000000000000        0x8 ./BaseDevice.o
 .group         0x0000000000000000        0x8 ./BaseDevice.o
 .group         0x0000000000000000        0x8 ./BaseDevice.o
 .group         0x0000000000000000        0x8 ./BaseDevice.o
 .group         0x0000000000000000        0x8 ./BaseDevice.o
 .group         0x0000000000000000        0x8 ./BaseDevice.o
 .group         0x0000000000000000        0x8 ./BaseDevice.o
 .group         0x0000000000000000        0x8 ./BaseDevice.o
 .group         0x0000000000000000        0x8 ./BaseDevice.o
 .group         0x0000000000000000        0x8 ./BaseDevice.o
 .group         0x0000000000000000        0x8 ./BaseDevice.o
 .group         0x0000000000000000        0x8 ./BaseDevice.o
 .group         0x0000000000000000        0x8 ./BaseDevice.o
 .group         0x0000000000000000        0x8 ./BaseDevice.o
 .group         0x0000000000000000        0x8 ./BaseDevice.o
 .group         0x0000000000000000        0x8 ./BaseDevice.o
 .group         0x0000000000000000        0x8 ./BaseDevice.o
 .group         0x0000000000000000        0x8 ./BaseDevice.o
 .group         0x0000000000000000        0x8 ./BaseDevice.o
 .group         0x0000000000000000        0x8 ./BaseDevice.o
 .group         0x0000000000000000        0x8 ./BaseDevice.o
 .group         0x0000000000000000        0x8 ./BaseDevice.o
 .group         0x0000000000000000        0x8 ./BaseDevice.o
 .group         0x0000000000000000        0x8 ./BaseDevice.o
 .group         0x0000000000000000        0x8 ./BaseDevice.o
 .group         0x0000000000000000        0x8 ./BaseDevice.o
 .group         0x0000000000000000        0x8 ./BaseDevice.o
 .group         0x0000000000000000        0x8 ./BaseDevice.o
 .group         0x0000000000000000        0x8 ./BaseDevice.o
 .group         0x0000000000000000        0x8 ./BaseDevice.o
 .group         0x0000000000000000        0x8 ./BaseDevice.o
 .group         0x0000000000000000        0x8 ./BaseDevice.o
 .group         0x0000000000000000        0x8 ./BaseDevice.o
 .group         0x0000000000000000        0x8 ./BaseDevice.o
 .group         0x0000000000000000        0x8 ./BaseDevice.o
 .group         0x0000000000000000        0x8 ./BaseDevice.o
 .group         0x0000000000000000        0x8 ./BaseDevice.o
 .group         0x0000000000000000        0x8 ./BaseDevice.o
 .group         0x0000000000000000        0x8 ./BaseDevice.o
 .group         0x0000000000000000        0x8 ./BaseDevice.o
 .group         0x0000000000000000        0x8 ./BaseDevice.o
 .group         0x0000000000000000        0x8 ./BaseDevice.o
 .group         0x0000000000000000        0x8 ./BaseDevice.o
 .group         0x0000000000000000        0x8 ./BaseDevice.o
 .group         0x0000000000000000        0x8 ./BaseDevice.o
 .group         0x0000000000000000        0x8 ./BaseDevice.o
 .group         0x0000000000000000        0x8 ./BaseDevice.o
 .group         0x0000000000000000        0x8 ./BaseDevice.o
 .group         0x0000000000000000        0x8 ./BaseDevice.o
 .group         0x0000000000000000        0x8 ./BaseDevice.o
 .group         0x0000000000000000        0x8 ./BaseDevice.o
 .group         0x0000000000000000        0x8 ./BaseDevice.o
 .group         0x0000000000000000        0x8 ./BaseDevice.o
 .group         0x0000000000000000        0x8 ./BaseDevice.o
 .group         0x0000000000000000        0x8 ./BaseDevice.o
 .group         0x0000000000000000        0x8 ./BaseDevice.o
 .group         0x0000000000000000        0x8 ./BaseDevice.o
 .group         0x0000000000000000        0x8 ./BaseDevice.o
 .group         0x0000000000000000        0x8 ./BaseDevice.o
 .group         0x0000000000000000        0x8 ./BaseDevice.o
 .group         0x0000000000000000        0x8 ./BaseDevice.o
 .group         0x0000000000000000        0x8 ./BaseDevice.o
 .group         0x0000000000000000        0x8 ./BaseDevice.o
 .note.GNU-stack
                0x0000000000000000        0x0 ./BaseDevice.o
 .group         0x0000000000000000        0x8 ./BaseDriver.o
 .group         0x0000000000000000        0x8 ./BaseDriver.o
 .group         0x0000000000000000        0xc ./BaseDriver.o
 .group         0x0000000000000000        0x8 ./BaseDriver.o
 .group         0x0000000000000000        0x8 ./BaseDriver.o
 .group         0x0000000000000000        0x8 ./BaseDriver.o
 .group         0x0000000000000000        0x8 ./BaseDriver.o
 .group         0x0000000000000000        0x8 ./BaseDriver.o
 .group         0x0000000000000000        0x8 ./BaseDriver.o
 .group         0x0000000000000000        0x8 ./BaseDriver.o
 .group         0x0000000000000000        0x8 ./BaseDriver.o
 .group         0x0000000000000000        0x8 ./BaseDriver.o
 .group         0x0000000000000000        0x8 ./BaseDriver.o
 .group         0x0000000000000000        0x8 ./BaseDriver.o
 .group         0x0000000000000000        0x8 ./BaseDriver.o
 .group         0x0000000000000000        0x8 ./BaseDriver.o
 .group         0x0000000000000000        0x8 ./BaseDriver.o
 .group         0x0000000000000000        0x8 ./BaseDriver.o
 .group         0x0000000000000000        0x8 ./BaseDriver.o
 .group         0x0000000000000000        0x8 ./BaseDriver.o
 .group         0x0000000000000000        0x8 ./BaseDriver.o
 .group         0x0000000000000000        0x8 ./BaseDriver.o
 .group         0x0000000000000000        0x8 ./BaseDriver.o
 .group         0x0000000000000000        0x8 ./BaseDriver.o
 .group         0x0000000000000000        0x8 ./BaseDriver.o
 .group         0x0000000000000000        0x8 ./BaseDriver.o
 .group         0x0000000000000000        0x8 ./BaseDriver.o
 .group         0x0000000000000000        0x8 ./BaseDriver.o
 .group         0x0000000000000000        0x8 ./BaseDriver.o
 .group         0x0000000000000000        0x8 ./BaseDriver.o
 .group         0x0000000000000000        0x8 ./BaseDriver.o
 .group         0x0000000000000000        0x8 ./BaseDriver.o
 .group         0x0000000000000000        0x8 ./BaseDriver.o
 .group         0x0000000000000000        0x8 ./BaseDriver.o
 .group         0x0000000000000000        0x8 ./BaseDriver.o
 .group         0x0000000000000000        0x8 ./BaseDriver.o
 .group         0x0000000000000000        0x8 ./BaseDriver.o
 .group         0x0000000000000000        0x8 ./BaseDriver.o
 .group         0x0000000000000000        0x8 ./BaseDriver.o
 .group         0x0000000000000000        0x8 ./BaseDriver.o
 .group         0x0000000000000000        0x8 ./BaseDriver.o
 .group         0x0000000000000000        0x8 ./BaseDriver.o
 .group         0x0000000000000000        0x8 ./BaseDriver.o
 .group         0x0000000000000000        0x8 ./BaseDriver.o
 .group         0x0000000000000000        0x8 ./BaseDriver.o
 .group         0x0000000000000000        0x8 ./BaseDriver.o
 .group         0x0000000000000000        0x8 ./BaseDriver.o
 .group         0x0000000000000000        0x8 ./BaseDriver.o
 .group         0x0000000000000000        0x8 ./BaseDriver.o
 .group         0x0000000000000000        0x8 ./BaseDriver.o
 .group         0x0000000000000000        0x8 ./BaseDriver.o
 .group         0x0000000000000000        0x8 ./BaseDriver.o
 .group         0x0000000000000000        0x8 ./BaseDriver.o
 .group         0x0000000000000000        0x8 ./BaseDriver.o
 .group         0x0000000000000000        0x8 ./BaseDriver.o
 .group         0x0000000000000000        0x8 ./BaseDriver.o
 .group         0x0000000000000000        0x8 ./BaseDriver.o
 .group         0x0000000000000000        0x8 ./BaseDriver.o
 .group         0x0000000000000000        0x8 ./BaseDriver.o
 .group         0x0000000000000000        0x8 ./BaseDriver.o
 .group         0x0000000000000000        0x8 ./BaseDriver.o
 .group         0x0000000000000000        0x8 ./BaseDriver.o
 .group         0x0000000000000000        0x8 ./BaseDriver.o
 .group         0x0000000000000000        0x8 ./BaseDriver.o
 .group         0x0000000000000000        0x8 ./BaseDriver.o
 .group         0x0000000000000000        0x8 ./BaseDriver.o
 .group         0x0000000000000000        0x8 ./BaseDriver.o
 .group         0x0000000000000000        0x8 ./BaseDriver.o
 .group         0x0000000000000000        0x8 ./BaseDriver.o
 .group         0x0000000000000000        0x8 ./BaseDriver.o
 .group         0x0000000000000000        0x8 ./BaseDriver.o
 .group         0x0000000000000000        0x8 ./BaseDriver.o
 .group         0x0000000000000000        0x8 ./BaseDriver.o
 .group         0x0000000000000000        0x8 ./BaseDriver.o
 .group         0x0000000000000000        0x8 ./BaseDriver.o
 .group         0x0000000000000000        0x8 ./BaseDriver.o
 .group         0x0000000000000000        0x8 ./BaseDriver.o
 .group         0x0000000000000000        0x8 ./BaseDriver.o
 .group         0x0000000000000000        0x8 ./BaseDriver.o
 .group         0x0000000000000000        0x8 ./BaseDriver.o
 .group         0x0000000000000000        0x8 ./BaseDriver.o
 .group         0x0000000000000000        0x8 ./BaseDriver.o
 .group         0x0000000000000000        0x8 ./BaseDriver.o
 .group         0x0000000000000000        0x8 ./BaseDriver.o
 .group         0x0000000000000000        0x8 ./BaseDriver.o
 .group         0x0000000000000000        0x8 ./BaseDriver.o
 .group         0x0000000000000000        0x8 ./BaseDriver.o
 .group         0x0000000000000000        0x8 ./BaseDriver.o
 .group         0x0000000000000000        0x8 ./BaseDriver.o
 .text._ZNSt11char_traitsIcE6lengthEPKc
                0x0000000000000000       0x31 ./BaseDriver.o
 .text._ZStplIcSt11char_traitsIcESaIcEESbIT_T0_T1_EPKS3_RKS6_
                0x0000000000000000       0xa4 ./BaseDriver.o
 .text._ZStplIcSt11char_traitsIcESaIcEESbIT_T0_T1_ERKS6_PKS3_
                0x0000000000000000       0x62 ./BaseDriver.o
 .text._ZStplIcSt11char_traitsIcESaIcEESbIT_T0_T1_ERKS6_S8_
                0x0000000000000000       0x62 ./BaseDriver.o
 .data.DW.ref.__gxx_personality_v0
                0x0000000000000000        0x8 ./BaseDriver.o
 .note.GNU-stack
                0x0000000000000000        0x0 ./BaseDriver.o
 .group         0x0000000000000000        0x8 ./Command.o
 .group         0x0000000000000000        0x8 ./Command.o
 .group         0x0000000000000000        0x8 ./Command.o
 .group         0x0000000000000000        0x8 ./Command.o
 .group         0x0000000000000000        0x8 ./Command.o
 .group         0x0000000000000000        0x8 ./Command.o
 .group         0x0000000000000000        0x8 ./Command.o
 .group         0x0000000000000000        0x8 ./Command.o
 .group         0x0000000000000000        0x8 ./Command.o
 .group         0x0000000000000000        0x8 ./Command.o
 .group         0x0000000000000000        0x8 ./Command.o
 .group         0x0000000000000000        0x8 ./Command.o
 .group         0x0000000000000000        0x8 ./Command.o
 .group         0x0000000000000000        0x8 ./Command.o
 .group         0x0000000000000000        0x8 ./Command.o
 .group         0x0000000000000000        0x8 ./Command.o
 .group         0x0000000000000000        0x8 ./Command.o
 .group         0x0000000000000000        0x8 ./Command.o
 .group         0x0000000000000000        0x8 ./Command.o
 .group         0x0000000000000000        0x8 ./Command.o
 .group         0x0000000000000000        0x8 ./Command.o
 .group         0x0000000000000000        0x8 ./Command.o
 .group         0x0000000000000000        0x8 ./Command.o
 .group         0x0000000000000000        0x8 ./Command.o
 .group         0x0000000000000000        0x8 ./Command.o
 .group         0x0000000000000000        0x8 ./Command.o
 .group         0x0000000000000000        0x8 ./Command.o
 .group         0x0000000000000000        0x8 ./Command.o
 .group         0x0000000000000000        0x8 ./Command.o
 .group         0x0000000000000000        0x8 ./Command.o
 .group         0x0000000000000000        0x8 ./Command.o
 .group         0x0000000000000000        0x8 ./Command.o
 .group         0x0000000000000000        0x8 ./Command.o
 .group         0x0000000000000000        0x8 ./Command.o
 .group         0x0000000000000000        0x8 ./Command.o
 .group         0x0000000000000000        0x8 ./Command.o
 .group         0x0000000000000000        0x8 ./Command.o
 .group         0x0000000000000000        0x8 ./Command.o
 .group         0x0000000000000000        0x8 ./Command.o
 .group         0x0000000000000000        0x8 ./Command.o
 .group         0x0000000000000000        0x8 ./Command.o
 .group         0x0000000000000000        0x8 ./Command.o
 .group         0x0000000000000000        0x8 ./Command.o
 .group         0x0000000000000000        0x8 ./Command.o
 .group         0x0000000000000000        0x8 ./Command.o
 .group         0x0000000000000000        0x8 ./Command.o
 .group         0x0000000000000000        0x8 ./Command.o
 .group         0x0000000000000000        0x8 ./Command.o
 .group         0x0000000000000000        0x8 ./Command.o
 .group         0x0000000000000000        0x8 ./Command.o
 .group         0x0000000000000000        0x8 ./Command.o
 .group         0x0000000000000000        0x8 ./Command.o
 .group         0x0000000000000000        0x8 ./Command.o
 .group         0x0000000000000000        0x8 ./Command.o
 .group         0x0000000000000000        0x8 ./Command.o
 .group         0x0000000000000000        0x8 ./Command.o
 .group         0x0000000000000000        0x8 ./Command.o
 .group         0x0000000000000000        0x8 ./Command.o
 .group         0x0000000000000000        0x8 ./Command.o
 .group         0x0000000000000000        0x8 ./Command.o
 .group         0x0000000000000000        0x8 ./Command.o
 .group         0x0000000000000000        0x8 ./Command.o
 .text._ZnwmPv  0x0000000000000000       0x12 ./Command.o
 .text._ZNSt11char_traitsIcE6lengthEPKc
                0x0000000000000000       0x31 ./Command.o
 .text._ZStplIcSt11char_traitsIcESaIcEESbIT_T0_T1_EPKS3_RKS6_
                0x0000000000000000       0xa4 ./Command.o
 .text._ZStplIcSt11char_traitsIcESaIcEESbIT_T0_T1_ERKS6_PKS3_
                0x0000000000000000       0x62 ./Command.o
 .text._ZStplIcSt11char_traitsIcESaIcEESbIT_T0_T1_ERKS6_S8_
                0x0000000000000000       0x62 ./Command.o
 .data.DW.ref.__gxx_personality_v0
                0x0000000000000000        0x8 ./Command.o
 .note.GNU-stack
                0x0000000000000000        0x0 ./Command.o
 .group         0x0000000000000000        0x8 ./Configuration.o
 .group         0x0000000000000000        0x8 ./Configuration.o
 .group         0x0000000000000000        0x8 ./Configuration.o
 .group         0x0000000000000000        0x8 ./Configuration.o
 .group         0x0000000000000000        0x8 ./Configuration.o
 .group         0x0000000000000000        0x8 ./Configuration.o
 .group         0x0000000000000000        0x8 ./Configuration.o
 .group         0x0000000000000000        0x8 ./Configuration.o
 .group         0x0000000000000000        0x8 ./Configuration.o
 .group         0x0000000000000000        0x8 ./Configuration.o
 .group         0x0000000000000000        0x8 ./Configuration.o
 .group         0x0000000000000000        0x8 ./Configuration.o
 .group         0x0000000000000000        0x8 ./Configuration.o
 .group         0x0000000000000000        0x8 ./Configuration.o
 .group         0x0000000000000000        0x8 ./Configuration.o
 .group         0x0000000000000000        0x8 ./Configuration.o
 .group         0x0000000000000000        0x8 ./Configuration.o
 .group         0x0000000000000000        0x8 ./Configuration.o
 .group         0x0000000000000000        0x8 ./Configuration.o
 .group         0x0000000000000000        0x8 ./Configuration.o
 .group         0x0000000000000000        0x8 ./Configuration.o
 .group         0x0000000000000000        0x8 ./Configuration.o
 .group         0x0000000000000000        0x8 ./Configuration.o
 .group         0x0000000000000000        0x8 ./Configuration.o
 .group         0x0000000000000000        0x8 ./Configuration.o
 .group         0x0000000000000000        0x8 ./Configuration.o
 .group         0x0000000000000000        0x8 ./Configuration.o
 .group         0x0000000000000000        0x8 ./Configuration.o
 .group         0x0000000000000000        0x8 ./Configuration.o
 .group         0x0000000000000000        0x8 ./Configuration.o
 .group         0x0000000000000000        0x8 ./Configuration.o
 .group         0x0000000000000000        0x8 ./Configuration.o
 .group         0x0000000000000000        0x8 ./Configuration.o
 .group         0x0000000000000000        0x8 ./Configuration.o
 .group         0x0000000000000000        0x8 ./Configuration.o
 .group         0x0000000000000000        0x8 ./Configuration.o
 .group         0x0000000000000000        0x8 ./Configuration.o
 .group         0x0000000000000000        0x8 ./Configuration.o
 .group         0x0000000000000000        0x8 ./Configuration.o
 .group         0x0000000000000000        0x8 ./Configuration.o
 .group         0x0000000000000000        0x8 ./Configuration.o
 .group         0x0000000000000000        0x8 ./Configuration.o
 .group         0x0000000000000000        0x8 ./Configuration.o
 .group         0x0000000000000000        0x8 ./Configuration.o
 .group         0x0000000000000000        0x8 ./Configuration.o
 .group         0x0000000000000000        0x8 ./Configuration.o
 .group         0x0000000000000000        0x8 ./Configuration.o
 .group         0x0000000000000000        0x8 ./Configuration.o
 .group         0x0000000000000000        0x8 ./Configuration.o
 .group         0x0000000000000000        0x8 ./Configuration.o
 .group         0x0000000000000000        0x8 ./Configuration.o
 .group         0x0000000000000000        0x8 ./Configuration.o
 .group         0x0000000000000000        0x8 ./Configuration.o
 .group         0x0000000000000000        0x8 ./Configuration.o
 .group         0x0000000000000000        0x8 ./Configuration.o
 .group         0x0000000000000000        0x8 ./Configuration.o
 .group         0x0000000000000000        0x8 ./Configuration.o
 .group         0x0000000000000000        0x8 ./Configuration.o
 .group         0x0000000000000000        0x8 ./Configuration.o
 .group         0x0000000000000000        0x8 ./Configuration.o
 .group         0x0000000000000000        0x8 ./Configuration.o
 .group         0x0000000000000000        0x8 ./Configuration.o
 .group         0x0000000000000000        0x8 ./Configuration.o
 .group         0x0000000000000000        0x8 ./Configuration.o
 .group         0x0000000000000000        0x8 ./Configuration.o
 .group         0x0000000000000000        0x8 ./Configuration.o
 .group         0x0000000000000000        0x8 ./Configuration.o
 .group         0x0000000000000000        0x8 ./Configuration.o
 .group         0x0000000000000000        0x8 ./Configuration.o
 .group         0x0000000000000000        0x8 ./Configuration.o
 .group         0x0000000000000000        0x8 ./Configuration.o
 .group         0x0000000000000000        0x8 ./Configuration.o
 .group         0x0000000000000000        0x8 ./Configuration.o
 .group         0x0000000000000000        0x8 ./Configuration.o
 .group         0x0000000000000000        0x8 ./Configuration.o
 .group         0x0000000000000000        0x8 ./Configuration.o
 .group         0x0000000000000000        0x8 ./Configuration.o
 .group         0x0000000000000000        0x8 ./Configuration.o
 .group         0x0000000000000000        0x8 ./Configuration.o
 .group         0x0000000000000000        0x8 ./Configuration.o
 .group         0x0000000000000000        0x8 ./Configuration.o
 .group         0x0000000000000000        0x8 ./Configuration.o
 .group         0x0000000000000000        0x8 ./Configuration.o
 .group         0x0000000000000000        0x8 ./Configuration.o
 .group         0x0000000000000000        0x8 ./Configuration.o
 .group         0x0000000000000000        0x8 ./Configuration.o
 .group         0x0000000000000000        0x8 ./Configuration.o
 .group         0x0000000000000000        0x8 ./Configuration.o
 .group         0x0000000000000000        0x8 ./Configuration.o
 .group         0x0000000000000000        0x8 ./Configuration.o
 .text._ZNSt11char_traitsIcE6lengthEPKc
                0x0000000000000000       0x31 ./Configuration.o
 .text._ZnwmPv  0x0000000000000000       0x12 ./Configuration.o
 .text._ZStplIcSt11char_traitsIcESaIcEESbIT_T0_T1_ERKS6_PKS3_
                0x0000000000000000       0x62 ./Configuration.o
 .text._ZStplIcSt11char_traitsIcESaIcEESbIT_T0_T1_ERKS6_S8_
                0x0000000000000000       0x62 ./Configuration.o
 .text._ZSteqIcSt11char_traitsIcESaIcEEbRKSbIT_T0_T1_EPKS3_
                0x0000000000000000       0x2a ./Configuration.o
 .text._ZStplIcSt11char_traitsIcESaIcEESbIT_T0_T1_EPKS3_RKS6_
                0x0000000000000000       0xa4 ./Configuration.o
 .data.DW.ref.__gxx_personality_v0
                0x0000000000000000        0x8 ./Configuration.o
 .note.GNU-stack
                0x0000000000000000        0x0 ./Configuration.o
 .group         0x0000000000000000        0x8 ./ConnectionPoint.o
 .group         0x0000000000000000        0x8 ./ConnectionPoint.o
 .group         0x0000000000000000        0x8 ./ConnectionPoint.o
 .group         0x0000000000000000        0x8 ./ConnectionPoint.o
 .group         0x0000000000000000        0x8 ./ConnectionPoint.o
 .group         0x0000000000000000        0x8 ./ConnectionPoint.o
 .group         0x0000000000000000        0x8 ./ConnectionPoint.o
 .group         0x0000000000000000        0x8 ./ConnectionPoint.o
 .text._ZNSt11char_traitsIcE6lengthEPKc
                0x0000000000000000       0x31 ./ConnectionPoint.o
 .text._ZStplIcSt11char_traitsIcESaIcEESbIT_T0_T1_EPKS3_RKS6_
                0x0000000000000000       0xa4 ./ConnectionPoint.o
 .text._ZStplIcSt11char_traitsIcESaIcEESbIT_T0_T1_ERKS6_PKS3_
                0x0000000000000000       0x62 ./ConnectionPoint.o
 .text._ZStplIcSt11char_traitsIcESaIcEESbIT_T0_T1_ERKS6_S8_
                0x0000000000000000       0x62 ./ConnectionPoint.o
 .data.DW.ref.__gxx_personality_v0
                0x0000000000000000        0x8 ./ConnectionPoint.o
 .note.GNU-stack
                0x0000000000000000        0x0 ./ConnectionPoint.o
 .group         0x0000000000000000        0x8 ./Convert.o
 .group         0x0000000000000000        0x8 ./Convert.o
 .group         0x0000000000000000        0x8 ./Convert.o
 .group         0x0000000000000000        0x8 ./Convert.o
 .text._ZNSt11char_traitsIcE7compareEPKcS2_m
                0x0000000000000000       0x2d ./Convert.o
 .text._ZSteqIcSt11char_traitsIcESaIcEEbRKSbIT_T0_T1_EPKS3_
                0x0000000000000000       0x2a ./Convert.o
 .text._ZSteqIcEN9__gnu_cxx11__enable_ifIXsrSt9__is_charIT_E7__valueEbE6__typeERKSbIS3_St11char_traitsIS3_ESaIS3_EESC_
                0x0000000000000000       0x84 ./Convert.o
 .data.DW.ref.__gxx_personality_v0
                0x0000000000000000        0x8 ./Convert.o
 .note.GNU-stack
                0x0000000000000000        0x0 ./Convert.o
 .group         0x0000000000000000        0x8 ./DataSerializationManager.o
 .group         0x0000000000000000        0x8 ./DataSerializationManager.o
 .group         0x0000000000000000        0x8 ./DataSerializationManager.o
 .group         0x0000000000000000        0x8 ./DataSerializationManager.o
 .data.DW.ref.__gxx_personality_v0
                0x0000000000000000        0x8 ./DataSerializationManager.o
 .note.GNU-stack
                0x0000000000000000        0x0 ./DataSerializationManager.o
 .group         0x0000000000000000        0x8 ./Event.o
 .group         0x0000000000000000        0x8 ./Event.o
 .group         0x0000000000000000        0x8 ./Event.o
 .group         0x0000000000000000        0x8 ./Event.o
 .group         0x0000000000000000        0x8 ./Event.o
 .group         0x0000000000000000        0x8 ./Event.o
 .group         0x0000000000000000        0x8 ./Event.o
 .group         0x0000000000000000        0x8 ./Event.o
 .group         0x0000000000000000        0x8 ./Event.o
 .group         0x0000000000000000        0x8 ./Event.o
 .group         0x0000000000000000        0x8 ./Event.o
 .group         0x0000000000000000        0x8 ./Event.o
 .group         0x0000000000000000        0x8 ./Event.o
 .group         0x0000000000000000        0x8 ./Event.o
 .group         0x0000000000000000        0x8 ./Event.o
 .group         0x0000000000000000        0x8 ./Event.o
 .group         0x0000000000000000        0x8 ./Event.o
 .group         0x0000000000000000        0x8 ./Event.o
 .group         0x0000000000000000        0x8 ./Event.o
 .group         0x0000000000000000        0x8 ./Event.o
 .group         0x0000000000000000        0x8 ./Event.o
 .group         0x0000000000000000        0x8 ./Event.o
 .group         0x0000000000000000        0x8 ./Event.o
 .group         0x0000000000000000        0x8 ./Event.o
 .group         0x0000000000000000        0x8 ./Event.o
 .group         0x0000000000000000        0x8 ./Event.o
 .group         0x0000000000000000        0x8 ./Event.o
 .group         0x0000000000000000        0x8 ./Event.o
 .group         0x0000000000000000        0x8 ./Event.o
 .group         0x0000000000000000        0x8 ./Event.o
 .group         0x0000000000000000        0x8 ./Event.o
 .group         0x0000000000000000        0x8 ./Event.o
 .group         0x0000000000000000        0x8 ./Event.o
 .group         0x0000000000000000        0x8 ./Event.o
 .group         0x0000000000000000        0x8 ./Event.o
 .group         0x0000000000000000        0x8 ./Event.o
 .group         0x0000000000000000        0x8 ./Event.o
 .group         0x0000000000000000        0x8 ./Event.o
 .group         0x0000000000000000        0x8 ./Event.o
 .group         0x0000000000000000        0x8 ./Event.o
 .group         0x0000000000000000        0x8 ./Event.o
 .group         0x0000000000000000        0x8 ./Event.o
 .group         0x0000000000000000        0x8 ./Event.o
 .group         0x0000000000000000        0x8 ./Event.o
 .group         0x0000000000000000        0x8 ./Event.o
 .group         0x0000000000000000        0x8 ./Event.o
 .group         0x0000000000000000        0x8 ./Event.o
 .group         0x0000000000000000        0x8 ./Event.o
 .group         0x0000000000000000        0x8 ./Event.o
 .group         0x0000000000000000        0x8 ./Event.o
 .group         0x0000000000000000        0x8 ./Event.o
 .group         0x0000000000000000        0x8 ./Event.o
 .group         0x0000000000000000        0x8 ./Event.o
 .group         0x0000000000000000        0x8 ./Event.o
 .group         0x0000000000000000        0x8 ./Event.o
 .group         0x0000000000000000        0x8 ./Event.o
 .group         0x0000000000000000        0x8 ./Event.o
 .group         0x0000000000000000        0x8 ./Event.o
 .group         0x0000000000000000        0x8 ./Event.o
 .group         0x0000000000000000        0x8 ./Event.o
 .text._ZNSt11char_traitsIcE6lengthEPKc
                0x0000000000000000       0x31 ./Event.o
 .text._ZnwmPv  0x0000000000000000       0x12 ./Event.o
 .text._ZdlPvS_
                0x0000000000000000        0xe ./Event.o
 .text._ZStplIcSt11char_traitsIcESaIcEESbIT_T0_T1_EPKS3_RKS6_
                0x0000000000000000       0xa4 ./Event.o
 .text._ZStplIcSt11char_traitsIcESaIcEESbIT_T0_T1_ERKS6_PKS3_
                0x0000000000000000       0x62 ./Event.o
 .text._ZStplIcSt11char_traitsIcESaIcEESbIT_T0_T1_ERKS6_S8_
                0x0000000000000000       0x62 ./Event.o
 .data.DW.ref.__gxx_personality_v0
                0x0000000000000000        0x8 ./Event.o
 .note.GNU-stack
                0x0000000000000000        0x0 ./Event.o
 .group         0x0000000000000000        0x8 ./InConnectionPoint.o
 .group         0x0000000000000000        0x8 ./InConnectionPoint.o
 .group         0x0000000000000000        0x8 ./InConnectionPoint.o
 .group         0x0000000000000000        0x8 ./InConnectionPoint.o
 .data.DW.ref.__gxx_personality_v0
                0x0000000000000000        0x8 ./InConnectionPoint.o
 .note.GNU-stack
                0x0000000000000000        0x0 ./InConnectionPoint.o
 .group         0x0000000000000000        0x8 ./JsonParameters.o
 .data.DW.ref.__gxx_personality_v0
                0x0000000000000000        0x8 ./JsonParameters.o
 .note.GNU-stack
                0x0000000000000000        0x0 ./JsonParameters.o
 .group         0x0000000000000000        0x8 ./LogEntry.o
 .group         0x0000000000000000        0x8 ./LogEntry.o
 .group         0x0000000000000000        0x8 ./LogEntry.o
 .group         0x0000000000000000        0x8 ./LogEntry.o
 .data.DW.ref.__gxx_personality_v0
                0x0000000000000000        0x8 ./LogEntry.o
 .note.GNU-stack
                0x0000000000000000        0x0 ./LogEntry.o
 .group         0x0000000000000000        0x8 ./OutConnectionPoint.o
 .group         0x0000000000000000        0x8 ./OutConnectionPoint.o
 .group         0x0000000000000000        0x8 ./OutConnectionPoint.o
 .group         0x0000000000000000        0x8 ./OutConnectionPoint.o
 .data.DW.ref.__gxx_personality_v0
                0x0000000000000000        0x8 ./OutConnectionPoint.o
 .note.GNU-stack
                0x0000000000000000        0x0 ./OutConnectionPoint.o
 .group         0x0000000000000000        0x8 ./Pinout.o
 .group         0x0000000000000000        0x8 ./Pinout.o
 .group         0x0000000000000000        0x8 ./Pinout.o
 .group         0x0000000000000000        0x8 ./Pinout.o
 .group         0x0000000000000000        0x8 ./Pinout.o
 .group         0x0000000000000000        0x8 ./Pinout.o
 .group         0x0000000000000000        0x8 ./Pinout.o
 .group         0x0000000000000000        0x8 ./Pinout.o
 .group         0x0000000000000000        0x8 ./Pinout.o
 .group         0x0000000000000000        0x8 ./Pinout.o
 .group         0x0000000000000000        0x8 ./Pinout.o
 .group         0x0000000000000000        0x8 ./Pinout.o
 .group         0x0000000000000000        0x8 ./Pinout.o
 .group         0x0000000000000000        0x8 ./Pinout.o
 .group         0x0000000000000000        0x8 ./Pinout.o
 .group         0x0000000000000000        0x8 ./Pinout.o
 .group         0x0000000000000000        0x8 ./Pinout.o
 .group         0x0000000000000000        0x8 ./Pinout.o
 .group         0x0000000000000000        0x8 ./Pinout.o
 .group         0x0000000000000000        0x8 ./Pinout.o
 .group         0x0000000000000000        0x8 ./Pinout.o
 .group         0x0000000000000000        0x8 ./Pinout.o
 .group         0x0000000000000000        0x8 ./Pinout.o
 .group         0x0000000000000000        0x8 ./Pinout.o
 .group         0x0000000000000000        0x8 ./Pinout.o
 .group         0x0000000000000000        0x8 ./Pinout.o
 .group         0x0000000000000000        0x8 ./Pinout.o
 .group         0x0000000000000000        0x8 ./Pinout.o
 .group         0x0000000000000000        0x8 ./Pinout.o
 .group         0x0000000000000000        0x8 ./Pinout.o
 .group         0x0000000000000000        0x8 ./Pinout.o
 .group         0x0000000000000000        0x8 ./Pinout.o
 .group         0x0000000000000000        0x8 ./Pinout.o
 .group         0x0000000000000000        0x8 ./Pinout.o
 .group         0x0000000000000000        0x8 ./Pinout.o
 .group         0x0000000000000000        0x8 ./Pinout.o
 .group         0x0000000000000000        0x8 ./Pinout.o
 .group         0x0000000000000000        0x8 ./Pinout.o
 .group         0x0000000000000000        0x8 ./Pinout.o
 .group         0x0000000000000000        0x8 ./Pinout.o
 .group         0x0000000000000000        0x8 ./Pinout.o
 .group         0x0000000000000000        0x8 ./Pinout.o
 .group         0x0000000000000000        0x8 ./Pinout.o
 .group         0x0000000000000000        0x8 ./Pinout.o
 .group         0x0000000000000000        0x8 ./Pinout.o
 .group         0x0000000000000000        0x8 ./Pinout.o
 .group         0x0000000000000000        0x8 ./Pinout.o
 .group         0x0000000000000000        0x8 ./Pinout.o
 .group         0x0000000000000000        0x8 ./Pinout.o
 .group         0x0000000000000000        0x8 ./Pinout.o
 .group         0x0000000000000000        0x8 ./Pinout.o
 .group         0x0000000000000000        0x8 ./Pinout.o
 .group         0x0000000000000000        0x8 ./Pinout.o
 .group         0x0000000000000000        0x8 ./Pinout.o
 .group         0x0000000000000000        0x8 ./Pinout.o
 .group         0x0000000000000000        0x8 ./Pinout.o
 .group         0x0000000000000000        0x8 ./Pinout.o
 .group         0x0000000000000000        0x8 ./Pinout.o
 .group         0x0000000000000000        0x8 ./Pinout.o
 .group         0x0000000000000000        0x8 ./Pinout.o
 .group         0x0000000000000000        0x8 ./Pinout.o
 .group         0x0000000000000000        0x8 ./Pinout.o
 .group         0x0000000000000000        0x8 ./Pinout.o
 .group         0x0000000000000000        0x8 ./Pinout.o
 .group         0x0000000000000000        0x8 ./Pinout.o
 .group         0x0000000000000000        0x8 ./Pinout.o
 .group         0x0000000000000000        0x8 ./Pinout.o
 .group         0x0000000000000000        0x8 ./Pinout.o
 .group         0x0000000000000000        0x8 ./Pinout.o
 .group         0x0000000000000000        0x8 ./Pinout.o
 .group         0x0000000000000000        0x8 ./Pinout.o
 .group         0x0000000000000000        0x8 ./Pinout.o
 .group         0x0000000000000000        0x8 ./Pinout.o
 .group         0x0000000000000000        0x8 ./Pinout.o
 .group         0x0000000000000000        0x8 ./Pinout.o
 .group         0x0000000000000000        0x8 ./Pinout.o
 .group         0x0000000000000000        0x8 ./Pinout.o
 .group         0x0000000000000000        0x8 ./Pinout.o
 .group         0x0000000000000000        0x8 ./Pinout.o
 .group         0x0000000000000000        0x8 ./Pinout.o
 .group         0x0000000000000000        0x8 ./Pinout.o
 .group         0x0000000000000000        0x8 ./Pinout.o
 .group         0x0000000000000000        0x8 ./Pinout.o
 .group         0x0000000000000000        0x8 ./Pinout.o
 .group         0x0000000000000000        0x8 ./Pinout.o
 .group         0x0000000000000000        0x8 ./Pinout.o
 .group         0x0000000000000000        0x8 ./Pinout.o
 .group         0x0000000000000000        0x8 ./Pinout.o
 .group         0x0000000000000000        0x8 ./Pinout.o
 .group         0x0000000000000000        0x8 ./Pinout.o
 .group         0x0000000000000000        0x8 ./Pinout.o
 .group         0x0000000000000000        0x8 ./Pinout.o
 .group         0x0000000000000000        0x8 ./Pinout.o
 .group         0x0000000000000000        0x8 ./Pinout.o
 .group         0x0000000000000000        0x8 ./Pinout.o
 .group         0x0000000000000000        0x8 ./Pinout.o
 .group         0x0000000000000000        0x8 ./Pinout.o
 .group         0x0000000000000000        0x8 ./Pinout.o
 .group         0x0000000000000000        0x8 ./Pinout.o
 .group         0x0000000000000000        0x8 ./Pinout.o
 .group         0x0000000000000000        0x8 ./Pinout.o
 .group         0x0000000000000000        0x8 ./Pinout.o
 .group         0x0000000000000000        0x8 ./Pinout.o
 .group         0x0000000000000000        0x8 ./Pinout.o
 .group         0x0000000000000000        0x8 ./Pinout.o
 .group         0x0000000000000000        0x8 ./Pinout.o
 .group         0x0000000000000000        0x8 ./Pinout.o
 .group         0x0000000000000000        0x8 ./Pinout.o
 .group         0x0000000000000000        0x8 ./Pinout.o
 .group         0x0000000000000000        0x8 ./Pinout.o
 .group         0x0000000000000000        0x8 ./Pinout.o
 .group         0x0000000000000000        0x8 ./Pinout.o
 .group         0x0000000000000000        0x8 ./Pinout.o
 .group         0x0000000000000000        0x8 ./Pinout.o
 .group         0x0000000000000000        0x8 ./Pinout.o
 .group         0x0000000000000000        0x8 ./Pinout.o
 .group         0x0000000000000000        0x8 ./Pinout.o
 .group         0x0000000000000000        0x8 ./Pinout.o
 .group         0x0000000000000000        0x8 ./Pinout.o
 .group         0x0000000000000000        0x8 ./Pinout.o
 .group         0x0000000000000000        0x8 ./Pinout.o
 .group         0x0000000000000000        0x8 ./Pinout.o
 .group         0x0000000000000000        0x8 ./Pinout.o
 .group         0x0000000000000000        0x8 ./Pinout.o
 .group         0x0000000000000000        0x8 ./Pinout.o
 .group         0x0000000000000000        0x8 ./Pinout.o
 .group         0x0000000000000000        0x8 ./Pinout.o
 .group         0x0000000000000000        0x8 ./Pinout.o
 .group         0x0000000000000000        0x8 ./Pinout.o
 .group         0x0000000000000000        0x8 ./Pinout.o
 .group         0x0000000000000000        0x8 ./Pinout.o
 .group         0x0000000000000000        0x8 ./Pinout.o
 .group         0x0000000000000000        0x8 ./Pinout.o
 .group         0x0000000000000000        0x8 ./Pinout.o
 .group         0x0000000000000000        0x8 ./Pinout.o
 .group         0x0000000000000000        0x8 ./Pinout.o
 .group         0x0000000000000000        0x8 ./Pinout.o
 .group         0x0000000000000000        0x8 ./Pinout.o
 .group         0x0000000000000000        0x8 ./Pinout.o
 .group         0x0000000000000000        0x8 ./Pinout.o
 .group         0x0000000000000000        0x8 ./Pinout.o
 .group         0x0000000000000000        0x8 ./Pinout.o
 .group         0x0000000000000000        0x8 ./Pinout.o
 .group         0x0000000000000000        0x8 ./Pinout.o
 .group         0x0000000000000000        0x8 ./Pinout.o
 .group         0x0000000000000000        0x8 ./Pinout.o
 .group         0x0000000000000000        0x8 ./Pinout.o
 .group         0x0000000000000000        0x8 ./Pinout.o
 .group         0x0000000000000000        0x8 ./Pinout.o
 .group         0x0000000000000000        0x8 ./Pinout.o
 .group         0x0000000000000000        0x8 ./Pinout.o
 .group         0x0000000000000000        0x8 ./Pinout.o
 .group         0x0000000000000000        0x8 ./Pinout.o
 .group         0x0000000000000000        0x8 ./Pinout.o
 .group         0x0000000000000000        0x8 ./Pinout.o
 .group         0x0000000000000000        0x8 ./Pinout.o
 .group         0x0000000000000000        0x8 ./Pinout.o
 .group         0x0000000000000000        0x8 ./Pinout.o
 .group         0x0000000000000000        0x8 ./Pinout.o
 .group         0x0000000000000000        0x8 ./Pinout.o
 .group         0x0000000000000000        0x8 ./Pinout.o
 .group         0x0000000000000000        0x8 ./Pinout.o
 .group         0x0000000000000000        0x8 ./Pinout.o
 .group         0x0000000000000000        0x8 ./Pinout.o
 .group         0x0000000000000000        0x8 ./Pinout.o
 .group         0x0000000000000000        0x8 ./Pinout.o
 .group         0x0000000000000000        0x8 ./Pinout.o
 .group         0x0000000000000000        0x8 ./Pinout.o
 .group         0x0000000000000000        0x8 ./Pinout.o
 .group         0x0000000000000000        0x8 ./Pinout.o
 .group         0x0000000000000000        0x8 ./Pinout.o
 .group         0x0000000000000000        0x8 ./Pinout.o
 .group         0x0000000000000000        0x8 ./Pinout.o
 .group         0x0000000000000000        0x8 ./Pinout.o
 .group         0x0000000000000000        0x8 ./Pinout.o
 .group         0x0000000000000000        0x8 ./Pinout.o
 .group         0x0000000000000000        0x8 ./Pinout.o
 .group         0x0000000000000000        0x8 ./Pinout.o
 .group         0x0000000000000000        0x8 ./Pinout.o
 .group         0x0000000000000000        0x8 ./Pinout.o
 .group         0x0000000000000000        0x8 ./Pinout.o
 .group         0x0000000000000000        0x8 ./Pinout.o
 .group         0x0000000000000000        0x8 ./Pinout.o
 .group         0x0000000000000000        0x8 ./Pinout.o
 .group         0x0000000000000000        0x8 ./Pinout.o
 .group         0x0000000000000000        0x8 ./Pinout.o
 .group         0x0000000000000000        0x8 ./Pinout.o
 .group         0x0000000000000000        0x8 ./Pinout.o
 .group         0x0000000000000000        0x8 ./Pinout.o
 .group         0x0000000000000000        0x8 ./Pinout.o
 .group         0x0000000000000000        0x8 ./Pinout.o
 .group         0x0000000000000000        0x8 ./Pinout.o
 .group         0x0000000000000000        0x8 ./Pinout.o
 .group         0x0000000000000000        0x8 ./Pinout.o
 .text._ZNSt11char_traitsIcE6lengthEPKc
                0x0000000000000000       0x31 ./Pinout.o
 .text._ZnwmPv  0x0000000000000000       0x12 ./Pinout.o
 .text._ZdlPvS_
                0x0000000000000000        0xe ./Pinout.o
 .text._ZN16CommandParameterC2ESsPvSs
                0x0000000000000000       0xa3 ./Pinout.o
 .text._ZN16CommandParameter5CloneEv
                0x0000000000000000      0x195 ./Pinout.o
 .text._ZN14EventParameterC2ERKS_
                0x0000000000000000       0x3a ./Pinout.o
 .text._ZN14EventParameterD2Ev
                0x0000000000000000        0xa ./Pinout.o
 .text._ZNSt4listI7CommandSaIS0_EED2Ev
                0x0000000000000000       0x1a ./Pinout.o
 .text._ZNSt4listI5EventSaIS0_EED2Ev
                0x0000000000000000       0x1a ./Pinout.o
 .text._ZNSt4listI14EventParameterSaIS0_EED2Ev
                0x0000000000000000       0x1a ./Pinout.o
 .text._ZSteqIcSt11char_traitsIcESaIcEEbRKSbIT_T0_T1_EPKS3_
                0x0000000000000000       0x2a ./Pinout.o
 .text._ZStplIcSt11char_traitsIcESaIcEESbIT_T0_T1_EPKS3_RKS6_
                0x0000000000000000       0xa4 ./Pinout.o
 .text._ZStplIcSt11char_traitsIcESaIcEESbIT_T0_T1_ERKS6_PKS3_
                0x0000000000000000       0x62 ./Pinout.o
 .text._ZStplIcSt11char_traitsIcESaIcEESbIT_T0_T1_ERKS6_S8_
                0x0000000000000000       0x62 ./Pinout.o
 .text._ZNSt4listIP16CommandParameterSaIS1_EEC2Ev
                0x0000000000000000       0x1a ./Pinout.o
 .text._ZNSt14_List_iteratorIP16CommandParameterEC2Ev
                0x0000000000000000       0x15 ./Pinout.o
 .text._ZNSt4listIP16CommandParameterSaIS1_EE5beginEv
                0x0000000000000000       0x28 ./Pinout.o
 .text._ZNSt4listIP16CommandParameterSaIS1_EE3endEv
                0x0000000000000000       0x25 ./Pinout.o
 .text._ZNKSt14_List_iteratorIP16CommandParameterEneERKS2_
                0x0000000000000000       0x22 ./Pinout.o
 .text._ZNSt14_List_iteratorIP16CommandParameterEppEi
                0x0000000000000000       0x2d ./Pinout.o
 .text._ZNKSt14_List_iteratorIP16CommandParameterEdeEv
                0x0000000000000000       0x15 ./Pinout.o
 .text._ZNSt4listIP16CommandParameterSaIS1_EE9push_backERKS1_
                0x0000000000000000       0x34 ./Pinout.o
 .text._ZNSt4listI7CommandSaIS0_EEC2Ev
                0x0000000000000000       0x1a ./Pinout.o
 .text._ZNSt4listI5EventSaIS0_EEC2Ev
                0x0000000000000000       0x1a ./Pinout.o
 .text._ZNSt10_List_baseI7CommandSaIS0_EE10_List_implD2Ev
                0x0000000000000000       0x1a ./Pinout.o
 .text._ZNSt10_List_baseI7CommandSaIS0_EED2Ev
                0x0000000000000000       0x46 ./Pinout.o
 .text._ZNSt10_List_baseI5EventSaIS0_EE10_List_implD2Ev
                0x0000000000000000       0x1a ./Pinout.o
 .text._ZNSt10_List_baseI5EventSaIS0_EED2Ev
                0x0000000000000000       0x46 ./Pinout.o
 .text._ZNSt10_List_baseI14EventParameterSaIS0_EE10_List_implD2Ev
                0x0000000000000000       0x1a ./Pinout.o
 .text._ZNSt10_List_baseI14EventParameterSaIS0_EED2Ev
                0x0000000000000000       0x46 ./Pinout.o
 .text._ZNKSt4listI7CommandSaIS0_EE4sizeEv
                0x0000000000000000       0x3a ./Pinout.o
 .text._ZNSt14_List_iteratorI7CommandEC2Ev
                0x0000000000000000       0x15 ./Pinout.o
 .text._ZNSt14_List_iteratorI5EventEC2Ev
                0x0000000000000000       0x15 ./Pinout.o
 .text._ZNSt4listI7CommandSaIS0_EE5beginEv
                0x0000000000000000       0x28 ./Pinout.o
 .text._ZNSt4listI7CommandSaIS0_EE3endEv
                0x0000000000000000       0x25 ./Pinout.o
 .text._ZNKSt14_List_iteratorI7CommandEneERKS1_
                0x0000000000000000       0x22 ./Pinout.o
 .text._ZNSt14_List_iteratorI7CommandEppEi
                0x0000000000000000       0x2d ./Pinout.o
 .text._ZNKSt14_List_iteratorI7CommandEdeEv
                0x0000000000000000       0x15 ./Pinout.o
 .text._ZNKSt4listI5EventSaIS0_EE4sizeEv
                0x0000000000000000       0x3a ./Pinout.o
 .text._ZNSt4listI5EventSaIS0_EE5beginEv
                0x0000000000000000       0x28 ./Pinout.o
 .text._ZNSt4listI5EventSaIS0_EE3endEv
                0x0000000000000000       0x25 ./Pinout.o
 .text._ZNKSt14_List_iteratorI5EventEneERKS1_
                0x0000000000000000       0x22 ./Pinout.o
 .text._ZNSt14_List_iteratorI5EventEppEi
                0x0000000000000000       0x2d ./Pinout.o
 .text._ZNKSt14_List_iteratorI5EventEdeEv
                0x0000000000000000       0x15 ./Pinout.o
 .text._ZNSt10_List_baseIP16CommandParameterSaIS1_EE10_List_implD2Ev
                0x0000000000000000       0x1a ./Pinout.o
 .text._ZNSt10_List_baseIP16CommandParameterSaIS1_EEC2Ev
                0x0000000000000000       0x48 ./Pinout.o
 .text._ZNSt14_List_iteratorIP16CommandParameterEC2EPNSt8__detail15_List_node_baseE
                0x0000000000000000       0x19 ./Pinout.o
 .text._ZNSt4listIP16CommandParameterSaIS1_EE9_M_insertESt14_List_iteratorIS1_ERKS1_
                0x0000000000000000       0x40 ./Pinout.o
 .text._ZNSt10_List_baseI7CommandSaIS0_EEC2Ev
                0x0000000000000000       0x48 ./Pinout.o
 .text._ZNSt10_List_baseI5EventSaIS0_EEC2Ev
                0x0000000000000000       0x48 ./Pinout.o
 .text._ZNSaISt10_List_nodeI7CommandEED2Ev
                0x0000000000000000       0x1a ./Pinout.o
 .text._ZNSt10_List_baseI7CommandSaIS0_EE8_M_clearEv
                0x0000000000000000       0xb3 ./Pinout.o
 .text._ZNSaISt10_List_nodeI5EventEED2Ev
                0x0000000000000000       0x1a ./Pinout.o
 .text._ZNSt10_List_baseI5EventSaIS0_EE8_M_clearEv
                0x0000000000000000       0xb3 ./Pinout.o
 .text._ZNKSt10_List_baseI14EventParameterSaIS0_EE21_M_get_Node_allocatorEv
                0x0000000000000000        0xe ./Pinout.o
 .text._ZNSaI14EventParameterEC2ISt10_List_nodeIS_EEERKSaIT_E
                0x0000000000000000       0x1e ./Pinout.o
 .text._ZNSaI14EventParameterED2Ev
                0x0000000000000000       0x1a ./Pinout.o
 .text._ZNKSt4listI14EventParameterSaIS0_EE5beginEv
                0x0000000000000000       0x28 ./Pinout.o
 .text._ZNKSt4listI14EventParameterSaIS0_EE3endEv
                0x0000000000000000       0x25 ./Pinout.o
 .text._ZNSaISt10_List_nodeI14EventParameterEED2Ev
                0x0000000000000000       0x1a ./Pinout.o
 .text._ZNSt10_List_baseI14EventParameterSaIS0_EE8_M_clearEv
                0x0000000000000000       0xb3 ./Pinout.o
 .text._ZNKSt10_List_baseI7CommandSaIS0_EE21_M_get_Node_allocatorEv
                0x0000000000000000        0xe ./Pinout.o
 .text._ZNSaI7CommandEC2ISt10_List_nodeIS_EEERKSaIT_E
                0x0000000000000000       0x1e ./Pinout.o
 .text._ZNSaI7CommandED2Ev
                0x0000000000000000       0x1a ./Pinout.o
 .text._ZNKSt4listI7CommandSaIS0_EE5beginEv
                0x0000000000000000       0x28 ./Pinout.o
 .text._ZNKSt4listI7CommandSaIS0_EE3endEv
                0x0000000000000000       0x25 ./Pinout.o
 .text._ZNKSt10_List_baseI5EventSaIS0_EE21_M_get_Node_allocatorEv
                0x0000000000000000        0xe ./Pinout.o
 .text._ZNSaI5EventEC2ISt10_List_nodeIS_EEERKSaIT_E
                0x0000000000000000       0x1e ./Pinout.o
 .text._ZNSaI5EventED2Ev
                0x0000000000000000       0x1a ./Pinout.o
 .text._ZNKSt4listI5EventSaIS0_EE5beginEv
                0x0000000000000000       0x28 ./Pinout.o
 .text._ZNKSt4listI5EventSaIS0_EE3endEv
                0x0000000000000000       0x25 ./Pinout.o
 .text._ZSt8distanceISt20_List_const_iteratorI7CommandEENSt15iterator_traitsIT_E15difference_typeES4_S4_
                0x0000000000000000       0x3a ./Pinout.o
 .text._ZNSt14_List_iteratorI7CommandEC2EPNSt8__detail15_List_node_baseE
                0x0000000000000000       0x19 ./Pinout.o
 .text._ZSt8distanceISt20_List_const_iteratorI5EventEENSt15iterator_traitsIT_E15difference_typeES4_S4_
                0x0000000000000000       0x3a ./Pinout.o
 .text._ZNSt14_List_iteratorI5EventEC2EPNSt8__detail15_List_node_baseE
                0x0000000000000000       0x19 ./Pinout.o
 .text._ZNSt10_List_baseIP16CommandParameterSaIS1_EE10_List_implC2Ev
                0x0000000000000000       0x31 ./Pinout.o
 .text._ZNSaISt10_List_nodeIP16CommandParameterEED2Ev
                0x0000000000000000       0x1a ./Pinout.o
 .text._ZNSt10_List_baseIP16CommandParameterSaIS1_EE7_M_initEv
                0x0000000000000000       0x21 ./Pinout.o
 .text._ZNSt4listIP16CommandParameterSaIS1_EE14_M_create_nodeERKS1_
                0x0000000000000000       0xb8 ./Pinout.o
 .text._ZNSt10_List_baseI7CommandSaIS0_EE10_List_implC2Ev
                0x0000000000000000       0x31 ./Pinout.o
 .text._ZNSt10_List_baseI7CommandSaIS0_EE7_M_initEv
                0x0000000000000000       0x21 ./Pinout.o
 .text._ZNSt10_List_baseI5EventSaIS0_EE10_List_implC2Ev
                0x0000000000000000       0x31 ./Pinout.o
 .text._ZNSt10_List_baseI5EventSaIS0_EE7_M_initEv
                0x0000000000000000       0x21 ./Pinout.o
 .text._ZN9__gnu_cxx13new_allocatorISt10_List_nodeI7CommandEED2Ev
                0x0000000000000000        0xa ./Pinout.o
 .text._ZNKSt10_List_baseI7CommandSaIS0_EE19_M_get_Tp_allocatorEv
                0x0000000000000000       0x34 ./Pinout.o
 .text._ZSt11__addressofI7CommandEPT_RS1_
                0x0000000000000000        0xe ./Pinout.o
 .text._ZN9__gnu_cxx13new_allocatorI7CommandE7destroyEPS1_
                0x0000000000000000       0x25 ./Pinout.o
 .text._ZNSt10_List_baseI7CommandSaIS0_EE11_M_put_nodeEPSt10_List_nodeIS0_E
                0x0000000000000000       0x2a ./Pinout.o
 .text._ZN9__gnu_cxx13new_allocatorISt10_List_nodeI5EventEED2Ev
                0x0000000000000000        0xa ./Pinout.o
 .text._ZNKSt10_List_baseI5EventSaIS0_EE19_M_get_Tp_allocatorEv
                0x0000000000000000       0x34 ./Pinout.o
 .text._ZSt11__addressofI5EventEPT_RS1_
                0x0000000000000000        0xe ./Pinout.o
 .text._ZN9__gnu_cxx13new_allocatorI5EventE7destroyEPS1_
                0x0000000000000000       0x25 ./Pinout.o
 .text._ZNSt10_List_baseI5EventSaIS0_EE11_M_put_nodeEPSt10_List_nodeIS0_E
                0x0000000000000000       0x2a ./Pinout.o
 .text._ZN9__gnu_cxx13new_allocatorI14EventParameterEC2Ev
                0x0000000000000000        0xa ./Pinout.o
 .text._ZN9__gnu_cxx13new_allocatorI14EventParameterED2Ev
                0x0000000000000000        0xa ./Pinout.o
 .text._ZNSt10_List_baseI14EventParameterSaIS0_EE7_M_initEv
                0x0000000000000000       0x21 ./Pinout.o
 .text._ZNSt20_List_const_iteratorI14EventParameterEC2EPKNSt8__detail15_List_node_baseE
                0x0000000000000000       0x19 ./Pinout.o
 .text._ZNKSt20_List_const_iteratorI14EventParameterEneERKS1_
                0x0000000000000000       0x22 ./Pinout.o
 .text._ZNSt20_List_const_iteratorI14EventParameterEppEv
                0x0000000000000000       0x1f ./Pinout.o
 .text._ZNSt4listI14EventParameterSaIS0_EE9push_backERKS0_
                0x0000000000000000       0x34 ./Pinout.o
 .text._ZN9__gnu_cxx13new_allocatorISt10_List_nodeI14EventParameterEED2Ev
                0x0000000000000000        0xa ./Pinout.o
 .text._ZNKSt10_List_baseI14EventParameterSaIS0_EE19_M_get_Tp_allocatorEv
                0x0000000000000000       0x34 ./Pinout.o
 .text._ZSt11__addressofI14EventParameterEPT_RS1_
                0x0000000000000000        0xe ./Pinout.o
 .text._ZN9__gnu_cxx13new_allocatorI14EventParameterE7destroyEPS1_
                0x0000000000000000       0x1e ./Pinout.o
 .text._ZNSt10_List_baseI14EventParameterSaIS0_EE11_M_put_nodeEPSt10_List_nodeIS0_E
                0x0000000000000000       0x2a ./Pinout.o
 .text._ZN9__gnu_cxx13new_allocatorI7CommandEC2Ev
                0x0000000000000000        0xa ./Pinout.o
 .text._ZN9__gnu_cxx13new_allocatorI7CommandED2Ev
                0x0000000000000000        0xa ./Pinout.o
 .text._ZNSt20_List_const_iteratorI7CommandEC2EPKNSt8__detail15_List_node_baseE
                0x0000000000000000       0x19 ./Pinout.o
 .text._ZNKSt20_List_const_iteratorI7CommandEneERKS1_
                0x0000000000000000       0x22 ./Pinout.o
 .text._ZNSt20_List_const_iteratorI7CommandEppEv
                0x0000000000000000       0x1f ./Pinout.o
 .text._ZN9__gnu_cxx13new_allocatorI5EventEC2Ev
                0x0000000000000000        0xa ./Pinout.o
 .text._ZN9__gnu_cxx13new_allocatorI5EventED2Ev
                0x0000000000000000        0xa ./Pinout.o
 .text._ZNSt20_List_const_iteratorI5EventEC2EPKNSt8__detail15_List_node_baseE
                0x0000000000000000       0x19 ./Pinout.o
 .text._ZNKSt20_List_const_iteratorI5EventEneERKS1_
                0x0000000000000000       0x22 ./Pinout.o
 .text._ZNSt20_List_const_iteratorI5EventEppEv
                0x0000000000000000       0x1f ./Pinout.o
 .text._ZSt19__iterator_categoryISt20_List_const_iteratorI7CommandEENSt15iterator_traitsIT_E17iterator_categoryERKS4_
                0x0000000000000000        0xa ./Pinout.o
 .text._ZSt10__distanceISt20_List_const_iteratorI7CommandEENSt15iterator_traitsIT_E15difference_typeES4_S4_St18input_iterator_tag
                0x0000000000000000       0x48 ./Pinout.o
 .text._ZSt19__iterator_categoryISt20_List_const_iteratorI5EventEENSt15iterator_traitsIT_E17iterator_categoryERKS4_
                0x0000000000000000        0xa ./Pinout.o
 .text._ZSt10__distanceISt20_List_const_iteratorI5EventEENSt15iterator_traitsIT_E15difference_typeES4_S4_St18input_iterator_tag
                0x0000000000000000       0x48 ./Pinout.o
 .text._ZNSaISt10_List_nodeIP16CommandParameterEEC2Ev
                0x0000000000000000       0x1a ./Pinout.o
 .text._ZN9__gnu_cxx13new_allocatorISt10_List_nodeIP16CommandParameterEED2Ev
                0x0000000000000000        0xa ./Pinout.o
 .text._ZNKSt10_List_baseIP16CommandParameterSaIS1_EE19_M_get_Tp_allocatorEv
                0x0000000000000000       0x34 ./Pinout.o
 .text._ZNSaIP16CommandParameterED2Ev
                0x0000000000000000       0x1a ./Pinout.o
 .text._ZSt11__addressofIP16CommandParameterEPT_RS2_
                0x0000000000000000        0xe ./Pinout.o
 .text._ZNSt10_List_baseIP16CommandParameterSaIS1_EE11_M_put_nodeEPSt10_List_nodeIS1_E
                0x0000000000000000       0x2a ./Pinout.o
 .text._ZNSt10_List_baseIP16CommandParameterSaIS1_EE11_M_get_nodeEv
                0x0000000000000000       0x24 ./Pinout.o
 .text._ZN9__gnu_cxx13new_allocatorIP16CommandParameterE9constructEPS2_RKS2_
                0x0000000000000000       0x36 ./Pinout.o
 .text._ZNSaISt10_List_nodeI7CommandEEC2Ev
                0x0000000000000000       0x1a ./Pinout.o
 .text._ZNSaISt10_List_nodeI5EventEEC2Ev
                0x0000000000000000       0x1a ./Pinout.o
 .text._ZN9__gnu_cxx13new_allocatorISt10_List_nodeI7CommandEE10deallocateEPS3_m
                0x0000000000000000       0x22 ./Pinout.o
 .text._ZN9__gnu_cxx13new_allocatorISt10_List_nodeI5EventEE10deallocateEPS3_m
                0x0000000000000000       0x22 ./Pinout.o
 .text._ZN9__gnu_cxx13new_allocatorISt10_List_nodeI14EventParameterEEC2Ev
                0x0000000000000000        0xa ./Pinout.o
 .text._ZNSt4listI14EventParameterSaIS0_EE3endEv
                0x0000000000000000       0x25 ./Pinout.o
 .text._ZNSt4listI14EventParameterSaIS0_EE9_M_insertESt14_List_iteratorIS0_ERKS0_
                0x0000000000000000       0x40 ./Pinout.o
 .text._ZN9__gnu_cxx13new_allocatorISt10_List_nodeI14EventParameterEE10deallocateEPS3_m
                0x0000000000000000       0x22 ./Pinout.o
 .text._ZN9__gnu_cxx13new_allocatorISt10_List_nodeI7CommandEEC2Ev
                0x0000000000000000        0xa ./Pinout.o
 .text._ZN9__gnu_cxx13new_allocatorISt10_List_nodeI5EventEEC2Ev
                0x0000000000000000        0xa ./Pinout.o
 .text._ZN9__gnu_cxx13new_allocatorISt10_List_nodeIP16CommandParameterEEC2Ev
                0x0000000000000000        0xa ./Pinout.o
 .text._ZNKSt10_List_baseIP16CommandParameterSaIS1_EE21_M_get_Node_allocatorEv
                0x0000000000000000        0xe ./Pinout.o
 .text._ZNSaIP16CommandParameterEC2ISt10_List_nodeIS0_EEERKSaIT_E
                0x0000000000000000       0x1e ./Pinout.o
 .text._ZN9__gnu_cxx13new_allocatorIP16CommandParameterED2Ev
                0x0000000000000000        0xa ./Pinout.o
 .text._ZN9__gnu_cxx13new_allocatorISt10_List_nodeIP16CommandParameterEE10deallocateEPS4_m
                0x0000000000000000       0x22 ./Pinout.o
 .text._ZN9__gnu_cxx13new_allocatorISt10_List_nodeIP16CommandParameterEE8allocateEmPKv
                0x0000000000000000       0x4b ./Pinout.o
 .text._ZNSt14_List_iteratorI14EventParameterEC2EPNSt8__detail15_List_node_baseE
                0x0000000000000000       0x19 ./Pinout.o
 .text._ZNSt4listI14EventParameterSaIS0_EE14_M_create_nodeERKS0_
                0x0000000000000000       0xb8 ./Pinout.o
 .text._ZN9__gnu_cxx13new_allocatorIP16CommandParameterEC2Ev
                0x0000000000000000        0xa ./Pinout.o
 .text._ZNK9__gnu_cxx13new_allocatorISt10_List_nodeIP16CommandParameterEE8max_sizeEv
                0x0000000000000000       0x14 ./Pinout.o
 .text._ZNSt10_List_baseI14EventParameterSaIS0_EE11_M_get_nodeEv
                0x0000000000000000       0x24 ./Pinout.o
 .text._ZN9__gnu_cxx13new_allocatorI14EventParameterE9constructEPS1_RKS1_
                0x0000000000000000       0x3b ./Pinout.o
 .text._ZN9__gnu_cxx13new_allocatorISt10_List_nodeI14EventParameterEE8allocateEmPKv
                0x0000000000000000       0x4c ./Pinout.o
 .text._ZNK9__gnu_cxx13new_allocatorISt10_List_nodeI14EventParameterEE8max_sizeEv
                0x0000000000000000       0x14 ./Pinout.o
 .data.DW.ref.__gxx_personality_v0
                0x0000000000000000        0x8 ./Pinout.o
 .note.GNU-stack
                0x0000000000000000        0x0 ./Pinout.o
 .group         0x0000000000000000        0x8 ./Process.o
 .group         0x0000000000000000        0x8 ./Process.o
 .group         0x0000000000000000        0x8 ./Process.o
 .group         0x0000000000000000        0x8 ./Process.o
 .group         0x0000000000000000        0x8 ./Process.o
 .group         0x0000000000000000        0x8 ./Process.o
 .group         0x0000000000000000        0x8 ./Process.o
 .group         0x0000000000000000        0x8 ./Process.o
 .group         0x0000000000000000        0x8 ./Process.o
 .group         0x0000000000000000        0x8 ./Process.o
 .group         0x0000000000000000        0x8 ./Process.o
 .group         0x0000000000000000        0x8 ./Process.o
 .group         0x0000000000000000        0x8 ./Process.o
 .group         0x0000000000000000        0x8 ./Process.o
 .group         0x0000000000000000        0x8 ./Process.o
 .group         0x0000000000000000        0x8 ./Process.o
 .group         0x0000000000000000        0x8 ./Process.o
 .group         0x0000000000000000        0x8 ./Process.o
 .group         0x0000000000000000        0x8 ./Process.o
 .group         0x0000000000000000        0x8 ./Process.o
 .group         0x0000000000000000        0x8 ./Process.o
 .group         0x0000000000000000        0x8 ./Process.o
 .group         0x0000000000000000        0x8 ./Process.o
 .group         0x0000000000000000        0x8 ./Process.o
 .group         0x0000000000000000        0x8 ./Process.o
 .group         0x0000000000000000        0x8 ./Process.o
 .group         0x0000000000000000        0x8 ./Process.o
 .group         0x0000000000000000        0x8 ./Process.o
 .group         0x0000000000000000        0x8 ./Process.o
 .group         0x0000000000000000        0x8 ./Process.o
 .group         0x0000000000000000        0x8 ./Process.o
 .group         0x0000000000000000        0x8 ./Process.o
 .group         0x0000000000000000        0x8 ./Process.o
 .group         0x0000000000000000        0x8 ./Process.o
 .group         0x0000000000000000        0x8 ./Process.o
 .group         0x0000000000000000        0x8 ./Process.o
 .group         0x0000000000000000        0x8 ./Process.o
 .group         0x0000000000000000        0x8 ./Process.o
 .group         0x0000000000000000        0x8 ./Process.o
 .group         0x0000000000000000        0x8 ./Process.o
 .group         0x0000000000000000        0x8 ./Process.o
 .group         0x0000000000000000        0x8 ./Process.o
 .group         0x0000000000000000        0x8 ./Process.o
 .group         0x0000000000000000        0x8 ./Process.o
 .group         0x0000000000000000        0x8 ./Process.o
 .group         0x0000000000000000        0x8 ./Process.o
 .group         0x0000000000000000        0x8 ./Process.o
 .group         0x0000000000000000        0x8 ./Process.o
 .group         0x0000000000000000        0x8 ./Process.o
 .group         0x0000000000000000        0x8 ./Process.o
 .group         0x0000000000000000        0x8 ./Process.o
 .group         0x0000000000000000        0x8 ./Process.o
 .group         0x0000000000000000        0x8 ./Process.o
 .group         0x0000000000000000        0x8 ./Process.o
 .group         0x0000000000000000        0x8 ./Process.o
 .group         0x0000000000000000        0x8 ./Process.o
 .group         0x0000000000000000        0x8 ./Process.o
 .group         0x0000000000000000        0x8 ./Process.o
 .group         0x0000000000000000        0x8 ./Process.o
 .group         0x0000000000000000        0x8 ./Process.o
 .group         0x0000000000000000        0x8 ./Process.o
 .group         0x0000000000000000        0x8 ./Process.o
 .group         0x0000000000000000        0x8 ./Process.o
 .group         0x0000000000000000        0x8 ./Process.o
 .group         0x0000000000000000        0x8 ./Process.o
 .group         0x0000000000000000        0x8 ./Process.o
 .group         0x0000000000000000        0x8 ./Process.o
 .group         0x0000000000000000        0x8 ./Process.o
 .group         0x0000000000000000        0x8 ./Process.o
 .group         0x0000000000000000        0x8 ./Process.o
 .group         0x0000000000000000        0x8 ./Process.o
 .group         0x0000000000000000        0x8 ./Process.o
 .group         0x0000000000000000        0x8 ./Process.o
 .group         0x0000000000000000        0x8 ./Process.o
 .group         0x0000000000000000        0x8 ./Process.o
 .group         0x0000000000000000        0x8 ./Process.o
 .group         0x0000000000000000        0x8 ./Process.o
 .group         0x0000000000000000        0x8 ./Process.o
 .group         0x0000000000000000        0x8 ./Process.o
 .group         0x0000000000000000        0x8 ./Process.o
 .group         0x0000000000000000        0x8 ./Process.o
 .group         0x0000000000000000        0x8 ./Process.o
 .group         0x0000000000000000        0x8 ./Process.o
 .group         0x0000000000000000        0x8 ./Process.o
 .group         0x0000000000000000        0x8 ./Process.o
 .group         0x0000000000000000        0x8 ./Process.o
 .group         0x0000000000000000        0x8 ./Process.o
 .group         0x0000000000000000        0x8 ./Process.o
 .group         0x0000000000000000        0x8 ./Process.o
 .group         0x0000000000000000        0x8 ./Process.o
 .group         0x0000000000000000        0x8 ./Process.o
 .group         0x0000000000000000        0x8 ./Process.o
 .group         0x0000000000000000        0x8 ./Process.o
 .group         0x0000000000000000        0x8 ./Process.o
 .group         0x0000000000000000        0x8 ./Process.o
 .group         0x0000000000000000        0x8 ./Process.o
 .group         0x0000000000000000        0x8 ./Process.o
 .group         0x0000000000000000        0x8 ./Process.o
 .group         0x0000000000000000        0x8 ./Process.o
 .group         0x0000000000000000        0x8 ./Process.o
 .group         0x0000000000000000        0x8 ./Process.o
 .group         0x0000000000000000        0x8 ./Process.o
 .group         0x0000000000000000        0x8 ./Process.o
 .group         0x0000000000000000        0x8 ./Process.o
 .group         0x0000000000000000        0x8 ./Process.o
 .group         0x0000000000000000        0x8 ./Process.o
 .group         0x0000000000000000        0x8 ./Process.o
 .group         0x0000000000000000        0x8 ./Process.o
 .group         0x0000000000000000        0x8 ./Process.o
 .group         0x0000000000000000        0x8 ./Process.o
 .group         0x0000000000000000        0x8 ./Process.o
 .group         0x0000000000000000        0x8 ./Process.o
 .group         0x0000000000000000        0x8 ./Process.o
 .group         0x0000000000000000        0x8 ./Process.o
 .group         0x0000000000000000        0x8 ./Process.o
 .text._ZNSt11char_traitsIcE6lengthEPKc
                0x0000000000000000       0x31 ./Process.o
 .text._ZnwmPv  0x0000000000000000       0x12 ./Process.o
 .text._ZN15DeviceParameterC2Ev
                0x0000000000000000       0xca ./Process.o
 .text._ZN15DeviceParameter11StringValueEv
                0x0000000000000000       0x2d ./Process.o
 .text._ZNSt4listIP15ConnectionPointSaIS1_EED2Ev
                0x0000000000000000       0x1a ./Process.o
 .text._ZStplIcSt11char_traitsIcESaIcEESbIT_T0_T1_EPKS3_RKS6_
                0x0000000000000000       0xa4 ./Process.o
 .text._ZStplIcSt11char_traitsIcESaIcEESbIT_T0_T1_ERKS6_PKS3_
                0x0000000000000000       0x62 ./Process.o
 .text._ZStplIcSt11char_traitsIcESaIcEESbIT_T0_T1_ERKS6_S8_
                0x0000000000000000       0x62 ./Process.o
 .text._ZNSt10_List_baseIP15ConnectionPointSaIS1_EE10_List_implD2Ev
                0x0000000000000000       0x1a ./Process.o
 .text._ZNSt10_List_baseIP15ConnectionPointSaIS1_EED2Ev
                0x0000000000000000       0x46 ./Process.o
 .text._ZNKSt4listIP15ConnectionPointSaIS1_EE4sizeEv
                0x0000000000000000       0x3a ./Process.o
 .text._ZNSt14_List_iteratorIP15ConnectionPointEC2Ev
                0x0000000000000000       0x15 ./Process.o
 .text._ZNSt4listIP15ConnectionPointSaIS1_EE5beginEv
                0x0000000000000000       0x28 ./Process.o
 .text._ZNSt4listIP15ConnectionPointSaIS1_EE3endEv
                0x0000000000000000       0x25 ./Process.o
 .text._ZNKSt14_List_iteratorIP15ConnectionPointEneERKS2_
                0x0000000000000000       0x22 ./Process.o
 .text._ZNSt14_List_iteratorIP15ConnectionPointEppEi
                0x0000000000000000       0x2d ./Process.o
 .text._ZNKSt14_List_iteratorIP15ConnectionPointEdeEv
                0x0000000000000000       0x15 ./Process.o
 .text._ZNSaISt10_List_nodeIP15ConnectionPointEED2Ev
                0x0000000000000000       0x1a ./Process.o
 .text._ZNSt10_List_baseIP15ConnectionPointSaIS1_EE8_M_clearEv
                0x0000000000000000       0xb3 ./Process.o
 .text._ZNKSt10_List_baseIP15ConnectionPointSaIS1_EE21_M_get_Node_allocatorEv
                0x0000000000000000        0xe ./Process.o
 .text._ZNSaIP15ConnectionPointEC2ISt10_List_nodeIS0_EEERKSaIT_E
                0x0000000000000000       0x1e ./Process.o
 .text._ZNSaIP15ConnectionPointED2Ev
                0x0000000000000000       0x1a ./Process.o
 .text._ZNSt10_List_baseIP15ConnectionPointSaIS1_EEC2ERKS2_
                0x0000000000000000       0x8c ./Process.o
 .text._ZNKSt4listIP15ConnectionPointSaIS1_EE5beginEv
                0x0000000000000000       0x28 ./Process.o
 .text._ZNKSt4listIP15ConnectionPointSaIS1_EE3endEv
                0x0000000000000000       0x25 ./Process.o
 .text._ZNSt4listIP15ConnectionPointSaIS1_EE22_M_initialize_dispatchISt20_List_const_iteratorIS1_EEEvT_S7_St12__false_type
                0x0000000000000000       0x59 ./Process.o
 .text._ZSt8distanceISt20_List_const_iteratorIP15ConnectionPointEENSt15iterator_traitsIT_E15difference_typeES5_S5_
                0x0000000000000000       0x3a ./Process.o
 .text._ZNKSt20_List_const_iteratorIP15ConnectionPointEneERKS2_
                0x0000000000000000       0x22 ./Process.o
 .text._ZNSt20_List_const_iteratorIP15ConnectionPointEppEv
                0x0000000000000000       0x1f ./Process.o
 .text._ZNKSt20_List_const_iteratorIP15ConnectionPointEdeEv
                0x0000000000000000       0x15 ./Process.o
 .text._ZNSt14_List_iteratorIP15ConnectionPointEC2EPNSt8__detail15_List_node_baseE
                0x0000000000000000       0x19 ./Process.o
 .text._ZN9__gnu_cxx13new_allocatorISt10_List_nodeIP15ConnectionPointEED2Ev
                0x0000000000000000        0xa ./Process.o
 .text._ZNKSt10_List_baseIP15ConnectionPointSaIS1_EE19_M_get_Tp_allocatorEv
                0x0000000000000000       0x34 ./Process.o
 .text._ZSt11__addressofIP15ConnectionPointEPT_RS2_
                0x0000000000000000        0xe ./Process.o
 .text._ZN9__gnu_cxx13new_allocatorIP15ConnectionPointE7destroyEPS2_
                0x0000000000000000        0xe ./Process.o
 .text._ZNSt10_List_baseIP15ConnectionPointSaIS1_EE11_M_put_nodeEPSt10_List_nodeIS1_E
                0x0000000000000000       0x2a ./Process.o
 .text._ZN9__gnu_cxx13new_allocatorIP15ConnectionPointEC2Ev
                0x0000000000000000        0xa ./Process.o
 .text._ZN9__gnu_cxx13new_allocatorIP15ConnectionPointED2Ev
                0x0000000000000000        0xa ./Process.o
 .text._ZNSaISt10_List_nodeIP15ConnectionPointEEC2IS1_EERKSaIT_E
                0x0000000000000000       0x1e ./Process.o
 .text._ZNSt10_List_baseIP15ConnectionPointSaIS1_EE10_List_implC2ERKSaISt10_List_nodeIS1_EE
                0x0000000000000000       0x3c ./Process.o
 .text._ZNSt10_List_baseIP15ConnectionPointSaIS1_EE7_M_initEv
                0x0000000000000000       0x21 ./Process.o
 .text._ZNSt20_List_const_iteratorIP15ConnectionPointEC2EPKNSt8__detail15_List_node_baseE
                0x0000000000000000       0x19 ./Process.o
 .text._ZNSt4listIP15ConnectionPointSaIS1_EE9push_backERKS1_
                0x0000000000000000       0x34 ./Process.o
 .text._ZSt19__iterator_categoryISt20_List_const_iteratorIP15ConnectionPointEENSt15iterator_traitsIT_E17iterator_categoryERKS5_
                0x0000000000000000        0xa ./Process.o
 .text._ZSt10__distanceISt20_List_const_iteratorIP15ConnectionPointEENSt15iterator_traitsIT_E15difference_typeES5_S5_St18input_iterator_tag
                0x0000000000000000       0x48 ./Process.o
 .text._ZN9__gnu_cxx13new_allocatorISt10_List_nodeIP15ConnectionPointEE10deallocateEPS4_m
                0x0000000000000000       0x22 ./Process.o
 .text._ZN9__gnu_cxx13new_allocatorISt10_List_nodeIP15ConnectionPointEEC2Ev
                0x0000000000000000        0xa ./Process.o
 .text._ZNSaISt10_List_nodeIP15ConnectionPointEEC2ERKS3_
                0x0000000000000000       0x25 ./Process.o
 .text._ZNSt4listIP15ConnectionPointSaIS1_EE9_M_insertESt14_List_iteratorIS1_ERKS1_
                0x0000000000000000       0x40 ./Process.o
 .text._ZN9__gnu_cxx13new_allocatorISt10_List_nodeIP15ConnectionPointEEC2ERKS5_
                0x0000000000000000        0xe ./Process.o
 .text._ZNSt4listIP15ConnectionPointSaIS1_EE14_M_create_nodeERKS1_
                0x0000000000000000       0xb8 ./Process.o
 .text._ZNSt10_List_baseIP15ConnectionPointSaIS1_EE11_M_get_nodeEv
                0x0000000000000000       0x24 ./Process.o
 .text._ZN9__gnu_cxx13new_allocatorIP15ConnectionPointE9constructEPS2_RKS2_
                0x0000000000000000       0x36 ./Process.o
 .text._ZN9__gnu_cxx13new_allocatorISt10_List_nodeIP15ConnectionPointEE8allocateEmPKv
                0x0000000000000000       0x4b ./Process.o
 .text._ZNK9__gnu_cxx13new_allocatorISt10_List_nodeIP15ConnectionPointEE8max_sizeEv
                0x0000000000000000       0x14 ./Process.o
 .data.DW.ref.__gxx_personality_v0
                0x0000000000000000        0x8 ./Process.o
 .note.GNU-stack
                0x0000000000000000        0x0 ./Process.o
 .group         0x0000000000000000        0x8 ./Program.o
 .group         0x0000000000000000        0x8 ./Program.o
 .group         0x0000000000000000        0x8 ./Program.o
 .group         0x0000000000000000        0x8 ./Program.o
 .group         0x0000000000000000        0x8 ./Program.o
 .group         0x0000000000000000        0x8 ./Program.o
 .group         0x0000000000000000        0x8 ./Program.o
 .group         0x0000000000000000        0x8 ./Program.o
 .group         0x0000000000000000        0x8 ./Program.o
 .group         0x0000000000000000        0x8 ./Program.o
 .group         0x0000000000000000        0x8 ./Program.o
 .group         0x0000000000000000        0x8 ./Program.o
 .group         0x0000000000000000        0x8 ./Program.o
 .group         0x0000000000000000        0x8 ./Program.o
 .group         0x0000000000000000        0x8 ./Program.o
 .group         0x0000000000000000        0x8 ./Program.o
 .group         0x0000000000000000        0x8 ./Program.o
 .group         0x0000000000000000        0x8 ./Program.o
 .group         0x0000000000000000        0x8 ./Program.o
 .group         0x0000000000000000        0x8 ./Program.o
 .group         0x0000000000000000        0x8 ./Program.o
 .group         0x0000000000000000        0x8 ./Program.o
 .group         0x0000000000000000        0x8 ./Program.o
 .group         0x0000000000000000        0x8 ./Program.o
 .group         0x0000000000000000        0x8 ./Program.o
 .group         0x0000000000000000        0x8 ./Program.o
 .group         0x0000000000000000        0x8 ./Program.o
 .group         0x0000000000000000        0x8 ./Program.o
 .group         0x0000000000000000        0x8 ./Program.o
 .group         0x0000000000000000        0x8 ./Program.o
 .group         0x0000000000000000        0x8 ./Program.o
 .group         0x0000000000000000        0x8 ./Program.o
 .group         0x0000000000000000        0x8 ./Program.o
 .group         0x0000000000000000        0x8 ./Program.o
 .group         0x0000000000000000        0x8 ./Program.o
 .group         0x0000000000000000        0x8 ./Program.o
 .group         0x0000000000000000        0x8 ./Program.o
 .group         0x0000000000000000        0x8 ./Program.o
 .group         0x0000000000000000        0x8 ./Program.o
 .group         0x0000000000000000        0x8 ./Program.o
 .group         0x0000000000000000        0x8 ./Program.o
 .group         0x0000000000000000        0x8 ./Program.o
 .group         0x0000000000000000        0x8 ./Program.o
 .group         0x0000000000000000        0x8 ./Program.o
 .group         0x0000000000000000        0x8 ./Program.o
 .group         0x0000000000000000        0x8 ./Program.o
 .group         0x0000000000000000        0x8 ./Program.o
 .group         0x0000000000000000        0x8 ./Program.o
 .group         0x0000000000000000        0x8 ./Program.o
 .group         0x0000000000000000        0x8 ./Program.o
 .group         0x0000000000000000        0x8 ./Program.o
 .group         0x0000000000000000        0x8 ./Program.o
 .group         0x0000000000000000        0x8 ./Program.o
 .group         0x0000000000000000        0x8 ./Program.o
 .group         0x0000000000000000        0x8 ./Program.o
 .group         0x0000000000000000        0x8 ./Program.o
 .group         0x0000000000000000        0x8 ./Program.o
 .group         0x0000000000000000        0x8 ./Program.o
 .group         0x0000000000000000        0x8 ./Program.o
 .group         0x0000000000000000        0x8 ./Program.o
 .group         0x0000000000000000        0x8 ./Program.o
 .group         0x0000000000000000        0x8 ./Program.o
 .group         0x0000000000000000        0x8 ./Program.o
 .group         0x0000000000000000        0x8 ./Program.o
 .group         0x0000000000000000        0x8 ./Program.o
 .group         0x0000000000000000        0x8 ./Program.o
 .group         0x0000000000000000        0x8 ./Program.o
 .group         0x0000000000000000        0x8 ./Program.o
 .group         0x0000000000000000        0x8 ./Program.o
 .group         0x0000000000000000        0x8 ./Program.o
 .group         0x0000000000000000        0x8 ./Program.o
 .group         0x0000000000000000        0x8 ./Program.o
 .group         0x0000000000000000        0x8 ./Program.o
 .group         0x0000000000000000        0x8 ./Program.o
 .group         0x0000000000000000        0x8 ./Program.o
 .group         0x0000000000000000        0x8 ./Program.o
 .group         0x0000000000000000        0x8 ./Program.o
 .text._ZnwmPv  0x0000000000000000       0x12 ./Program.o
 .text._ZNSt14_List_iteratorIP10BaseDeviceEC2Ev
                0x0000000000000000       0x15 ./Program.o
 .text._ZNSt4listIP10BaseDeviceSaIS1_EE5beginEv
                0x0000000000000000       0x28 ./Program.o
 .text._ZNSt4listIP10BaseDeviceSaIS1_EE3endEv
                0x0000000000000000       0x25 ./Program.o
 .text._ZNKSt14_List_iteratorIP10BaseDeviceEneERKS2_
                0x0000000000000000       0x22 ./Program.o
 .text._ZNSt14_List_iteratorIP10BaseDeviceEppEi
                0x0000000000000000       0x2d ./Program.o
 .text._ZNKSt14_List_iteratorIP10BaseDeviceEdeEv
                0x0000000000000000       0x15 ./Program.o
 .text._ZNSt14_List_iteratorIP10BaseDeviceEC2EPNSt8__detail15_List_node_baseE
                0x0000000000000000       0x19 ./Program.o
 .data.DW.ref.__gxx_personality_v0
                0x0000000000000000        0x8 ./Program.o
 .note.GNU-stack
                0x0000000000000000        0x0 ./Program.o
 .group         0x0000000000000000        0x8 ./Wire.o
 .group         0x0000000000000000        0x8 ./Wire.o
 .group         0x0000000000000000        0x8 ./Wire.o
 .group         0x0000000000000000        0x8 ./Wire.o
 .group         0x0000000000000000        0x8 ./Wire.o
 .group         0x0000000000000000        0x8 ./Wire.o
 .group         0x0000000000000000        0x8 ./Wire.o
 .group         0x0000000000000000        0x8 ./Wire.o
 .group         0x0000000000000000        0x8 ./Wire.o
 .group         0x0000000000000000        0x8 ./Wire.o
 .group         0x0000000000000000        0x8 ./Wire.o
 .group         0x0000000000000000        0x8 ./Wire.o
 .group         0x0000000000000000        0x8 ./Wire.o
 .group         0x0000000000000000        0x8 ./Wire.o
 .group         0x0000000000000000        0x8 ./Wire.o
 .group         0x0000000000000000        0x8 ./Wire.o
 .group         0x0000000000000000        0x8 ./Wire.o
 .group         0x0000000000000000        0x8 ./Wire.o
 .group         0x0000000000000000        0x8 ./Wire.o
 .group         0x0000000000000000        0x8 ./Wire.o
 .group         0x0000000000000000        0x8 ./Wire.o
 .group         0x0000000000000000        0x8 ./Wire.o
 .group         0x0000000000000000        0x8 ./Wire.o
 .group         0x0000000000000000        0x8 ./Wire.o
 .group         0x0000000000000000        0x8 ./Wire.o
 .group         0x0000000000000000        0x8 ./Wire.o
 .group         0x0000000000000000        0x8 ./Wire.o
 .group         0x0000000000000000        0x8 ./Wire.o
 .group         0x0000000000000000        0x8 ./Wire.o
 .group         0x0000000000000000        0x8 ./Wire.o
 .group         0x0000000000000000        0x8 ./Wire.o
 .group         0x0000000000000000        0x8 ./Wire.o
 .group         0x0000000000000000        0x8 ./Wire.o
 .group         0x0000000000000000        0x8 ./Wire.o
 .group         0x0000000000000000        0x8 ./Wire.o
 .group         0x0000000000000000        0x8 ./Wire.o
 .group         0x0000000000000000        0x8 ./Wire.o
 .group         0x0000000000000000        0x8 ./Wire.o
 .group         0x0000000000000000        0x8 ./Wire.o
 .group         0x0000000000000000        0x8 ./Wire.o
 .group         0x0000000000000000        0x8 ./Wire.o
 .group         0x0000000000000000        0x8 ./Wire.o
 .group         0x0000000000000000        0x8 ./Wire.o
 .group         0x0000000000000000        0x8 ./Wire.o
 .group         0x0000000000000000        0x8 ./Wire.o
 .group         0x0000000000000000        0x8 ./Wire.o
 .group         0x0000000000000000        0x8 ./Wire.o
 .group         0x0000000000000000        0x8 ./Wire.o
 .group         0x0000000000000000        0x8 ./Wire.o
 .group         0x0000000000000000        0x8 ./Wire.o
 .group         0x0000000000000000        0x8 ./Wire.o
 .group         0x0000000000000000        0x8 ./Wire.o
 .group         0x0000000000000000        0x8 ./Wire.o
 .group         0x0000000000000000        0x8 ./Wire.o
 .group         0x0000000000000000        0x8 ./Wire.o
 .group         0x0000000000000000        0x8 ./Wire.o
 .group         0x0000000000000000        0x8 ./Wire.o
 .text._ZnwmPv  0x0000000000000000       0x12 ./Wire.o
 .text._ZN13IValueChangedC2Ev
                0x0000000000000000       0x1c ./Wire.o
 .text._ZN13IRefreshValueC2Ev
                0x0000000000000000       0x1c ./Wire.o
 .text._ZNSt4listIP15ConnectionPointSaIS1_EED2Ev
                0x0000000000000000       0x1a ./Wire.o
 .text._ZNSt4listIP15ConnectionPointSaIS1_EEC2Ev
                0x0000000000000000       0x1a ./Wire.o
 .text._ZNSt14_List_iteratorIP15ConnectionPointEC2Ev
                0x0000000000000000       0x15 ./Wire.o
 .text._ZNSt4listIP15ConnectionPointSaIS1_EE5beginEv
                0x0000000000000000       0x28 ./Wire.o
 .text._ZNSt4listIP15ConnectionPointSaIS1_EE3endEv
                0x0000000000000000       0x25 ./Wire.o
 .text._ZNKSt14_List_iteratorIP15ConnectionPointEneERKS2_
                0x0000000000000000       0x22 ./Wire.o
 .text._ZNSt14_List_iteratorIP15ConnectionPointEppEi
                0x0000000000000000       0x2d ./Wire.o
 .text._ZNKSt14_List_iteratorIP15ConnectionPointEdeEv
                0x0000000000000000       0x15 ./Wire.o
 .text._ZNSt10_List_baseIP15ConnectionPointSaIS1_EE10_List_implD2Ev
                0x0000000000000000       0x1a ./Wire.o
 .text._ZNSt10_List_baseIP15ConnectionPointSaIS1_EED2Ev
                0x0000000000000000       0x46 ./Wire.o
 .text._ZNSt4listIP15ConnectionPointSaIS1_EE9push_backERKS1_
                0x0000000000000000       0x34 ./Wire.o
 .text._ZNSt10_List_baseIP15ConnectionPointSaIS1_EEC2Ev
                0x0000000000000000       0x48 ./Wire.o
 .text._ZNSt14_List_iteratorIP15ConnectionPointEC2EPNSt8__detail15_List_node_baseE
                0x0000000000000000       0x19 ./Wire.o
 .text._ZNSaISt10_List_nodeIP15ConnectionPointEED2Ev
                0x0000000000000000       0x1a ./Wire.o
 .text._ZNSt10_List_baseIP15ConnectionPointSaIS1_EE8_M_clearEv
                0x0000000000000000       0xb3 ./Wire.o
 .text._ZNSt4listIP15ConnectionPointSaIS1_EE9_M_insertESt14_List_iteratorIS1_ERKS1_
                0x0000000000000000       0x40 ./Wire.o
 .text._ZNSt14_List_iteratorIP15ConnectionPointEppEv
                0x0000000000000000       0x1f ./Wire.o
 .text._ZSt11__addressofIP15ConnectionPointEPT_RS2_
                0x0000000000000000        0xe ./Wire.o
 .text._ZNSt4listIP15ConnectionPointSaIS1_EE8_M_eraseESt14_List_iteratorIS1_E
                0x0000000000000000       0x9a ./Wire.o
 .text._ZNSt10_List_baseIP15ConnectionPointSaIS1_EE10_List_implC2Ev
                0x0000000000000000       0x31 ./Wire.o
 .text._ZNSt10_List_baseIP15ConnectionPointSaIS1_EE7_M_initEv
                0x0000000000000000       0x21 ./Wire.o
 .text._ZN9__gnu_cxx13new_allocatorISt10_List_nodeIP15ConnectionPointEED2Ev
                0x0000000000000000        0xa ./Wire.o
 .text._ZNKSt10_List_baseIP15ConnectionPointSaIS1_EE19_M_get_Tp_allocatorEv
                0x0000000000000000       0x34 ./Wire.o
 .text._ZNSaIP15ConnectionPointED2Ev
                0x0000000000000000       0x1a ./Wire.o
 .text._ZN9__gnu_cxx13new_allocatorIP15ConnectionPointE7destroyEPS2_
                0x0000000000000000        0xe ./Wire.o
 .text._ZNSt10_List_baseIP15ConnectionPointSaIS1_EE11_M_put_nodeEPSt10_List_nodeIS1_E
                0x0000000000000000       0x2a ./Wire.o
 .text._ZNSt4listIP15ConnectionPointSaIS1_EE14_M_create_nodeERKS1_
                0x0000000000000000       0xb8 ./Wire.o
 .text._ZNSaISt10_List_nodeIP15ConnectionPointEEC2Ev
                0x0000000000000000       0x1a ./Wire.o
 .text._ZNKSt10_List_baseIP15ConnectionPointSaIS1_EE21_M_get_Node_allocatorEv
                0x0000000000000000        0xe ./Wire.o
 .text._ZNSaIP15ConnectionPointEC2ISt10_List_nodeIS0_EEERKSaIT_E
                0x0000000000000000       0x1e ./Wire.o
 .text._ZN9__gnu_cxx13new_allocatorIP15ConnectionPointED2Ev
                0x0000000000000000        0xa ./Wire.o
 .text._ZN9__gnu_cxx13new_allocatorISt10_List_nodeIP15ConnectionPointEE10deallocateEPS4_m
                0x0000000000000000       0x22 ./Wire.o
 .text._ZNSt10_List_baseIP15ConnectionPointSaIS1_EE11_M_get_nodeEv
                0x0000000000000000       0x24 ./Wire.o
 .text._ZN9__gnu_cxx13new_allocatorIP15ConnectionPointE9constructEPS2_RKS2_
                0x0000000000000000       0x36 ./Wire.o
 .text._ZN9__gnu_cxx13new_allocatorISt10_List_nodeIP15ConnectionPointEEC2Ev
                0x0000000000000000        0xa ./Wire.o
 .text._ZN9__gnu_cxx13new_allocatorIP15ConnectionPointEC2Ev
                0x0000000000000000        0xa ./Wire.o
 .text._ZN9__gnu_cxx13new_allocatorISt10_List_nodeIP15ConnectionPointEE8allocateEmPKv
                0x0000000000000000       0x4b ./Wire.o
 .text._ZNK9__gnu_cxx13new_allocatorISt10_List_nodeIP15ConnectionPointEE8max_sizeEv
                0x0000000000000000       0x14 ./Wire.o
 .data.rel.ro._ZTV13IRefreshValue
                0x0000000000000000       0x18 ./Wire.o
 .data.rel.ro._ZTV13IValueChanged
                0x0000000000000000       0x18 ./Wire.o
 .rodata._ZTS13IRefreshValue
                0x0000000000000000       0x10 ./Wire.o
 .data.rel.ro._ZTI13IRefreshValue
                0x0000000000000000       0x10 ./Wire.o
 .rodata._ZTS13IValueChanged
                0x0000000000000000       0x10 ./Wire.o
 .data.rel.ro._ZTI13IValueChanged
                0x0000000000000000       0x10 ./Wire.o
 .data.DW.ref.__gxx_personality_v0
                0x0000000000000000        0x8 ./Wire.o
 .note.GNU-stack
                0x0000000000000000        0x0 ./Wire.o
 .group         0x0000000000000000        0x8 ./Logging/BaseLogProvider.o
 .group         0x0000000000000000        0x8 ./Logging/BaseLogProvider.o
 .group         0x0000000000000000        0x8 ./Logging/BaseLogProvider.o
 .note.GNU-stack
                0x0000000000000000        0x0 ./Logging/BaseLogProvider.o
 .group         0x0000000000000000        0x8 ./Logging/EventLogger.o
 .group         0x0000000000000000        0x8 ./Logging/EventLogger.o
 .group         0x0000000000000000        0x8 ./Logging/EventLogger.o
 .group         0x0000000000000000        0x8 ./Logging/EventLogger.o
 .group         0x0000000000000000        0x8 ./Logging/EventLogger.o
 .group         0x0000000000000000        0x8 ./Logging/EventLogger.o
 .group         0x0000000000000000        0x8 ./Logging/EventLogger.o
 .group         0x0000000000000000        0x8 ./Logging/EventLogger.o
 .group         0x0000000000000000        0x8 ./Logging/EventLogger.o
 .group         0x0000000000000000        0x8 ./Logging/EventLogger.o
 .group         0x0000000000000000        0x8 ./Logging/EventLogger.o
 .group         0x0000000000000000        0x8 ./Logging/EventLogger.o
 .group         0x0000000000000000        0x8 ./Logging/EventLogger.o
 .group         0x0000000000000000        0x8 ./Logging/EventLogger.o
 .group         0x0000000000000000        0x8 ./Logging/EventLogger.o
 .group         0x0000000000000000        0x8 ./Logging/EventLogger.o
 .group         0x0000000000000000        0x8 ./Logging/EventLogger.o
 .group         0x0000000000000000        0x8 ./Logging/EventLogger.o
 .group         0x0000000000000000        0x8 ./Logging/EventLogger.o
 .group         0x0000000000000000        0x8 ./Logging/EventLogger.o
 .group         0x0000000000000000        0x8 ./Logging/EventLogger.o
 .group         0x0000000000000000        0x8 ./Logging/EventLogger.o
 .group         0x0000000000000000        0x8 ./Logging/EventLogger.o
 .group         0x0000000000000000        0x8 ./Logging/EventLogger.o
 .group         0x0000000000000000        0x8 ./Logging/EventLogger.o
 .group         0x0000000000000000        0x8 ./Logging/EventLogger.o
 .group         0x0000000000000000        0x8 ./Logging/EventLogger.o
 .group         0x0000000000000000        0x8 ./Logging/EventLogger.o
 .group         0x0000000000000000        0x8 ./Logging/EventLogger.o
 .group         0x0000000000000000        0x8 ./Logging/EventLogger.o
 .group         0x0000000000000000        0x8 ./Logging/EventLogger.o
 .group         0x0000000000000000        0x8 ./Logging/EventLogger.o
 .group         0x0000000000000000        0x8 ./Logging/EventLogger.o
 .group         0x0000000000000000        0x8 ./Logging/EventLogger.o
 .group         0x0000000000000000        0x8 ./Logging/EventLogger.o
 .group         0x0000000000000000        0x8 ./Logging/EventLogger.o
 .group         0x0000000000000000        0x8 ./Logging/EventLogger.o
 .group         0x0000000000000000        0x8 ./Logging/EventLogger.o
 .group         0x0000000000000000        0x8 ./Logging/EventLogger.o
 .group         0x0000000000000000        0x8 ./Logging/EventLogger.o
 .group         0x0000000000000000        0x8 ./Logging/EventLogger.o
 .group         0x0000000000000000        0x8 ./Logging/EventLogger.o
 .group         0x0000000000000000        0x8 ./Logging/EventLogger.o
 .group         0x0000000000000000        0x8 ./Logging/EventLogger.o
 .group         0x0000000000000000        0x8 ./Logging/EventLogger.o
 .group         0x0000000000000000        0x8 ./Logging/EventLogger.o
 .group         0x0000000000000000        0x8 ./Logging/EventLogger.o
 .group         0x0000000000000000        0x8 ./Logging/EventLogger.o
 .group         0x0000000000000000        0x8 ./Logging/EventLogger.o
 .group         0x0000000000000000        0x8 ./Logging/EventLogger.o
 .group         0x0000000000000000        0x8 ./Logging/EventLogger.o
 .group         0x0000000000000000        0x8 ./Logging/EventLogger.o
 .group         0x0000000000000000        0x8 ./Logging/EventLogger.o
 .group         0x0000000000000000        0x8 ./Logging/EventLogger.o
 .group         0x0000000000000000        0x8 ./Logging/EventLogger.o
 .group         0x0000000000000000        0x8 ./Logging/EventLogger.o
 .group         0x0000000000000000        0x8 ./Logging/EventLogger.o
 .group         0x0000000000000000        0x8 ./Logging/EventLogger.o
 .group         0x0000000000000000        0x8 ./Logging/EventLogger.o
 .group         0x0000000000000000        0x8 ./Logging/EventLogger.o
 .group         0x0000000000000000        0x8 ./Logging/EventLogger.o
 .group         0x0000000000000000        0x8 ./Logging/EventLogger.o
 .group         0x0000000000000000        0x8 ./Logging/EventLogger.o
 .group         0x0000000000000000        0x8 ./Logging/EventLogger.o
 .group         0x0000000000000000        0x8 ./Logging/EventLogger.o
 .group         0x0000000000000000        0x8 ./Logging/EventLogger.o
 .group         0x0000000000000000        0x8 ./Logging/EventLogger.o
 .group         0x0000000000000000        0x8 ./Logging/EventLogger.o
 .group         0x0000000000000000        0x8 ./Logging/EventLogger.o
 .group         0x0000000000000000        0x8 ./Logging/EventLogger.o
 .group         0x0000000000000000        0x8 ./Logging/EventLogger.o
 .group         0x0000000000000000        0x8 ./Logging/EventLogger.o
 .group         0x0000000000000000        0x8 ./Logging/EventLogger.o
 .group         0x0000000000000000        0x8 ./Logging/EventLogger.o
 .group         0x0000000000000000        0x8 ./Logging/EventLogger.o
 .group         0x0000000000000000        0x8 ./Logging/EventLogger.o
 .group         0x0000000000000000        0x8 ./Logging/EventLogger.o
 .group         0x0000000000000000        0x8 ./Logging/EventLogger.o
 .group         0x0000000000000000        0x8 ./Logging/EventLogger.o
 .group         0x0000000000000000        0x8 ./Logging/EventLogger.o
 .group         0x0000000000000000        0x8 ./Logging/EventLogger.o
 .group         0x0000000000000000        0x8 ./Logging/EventLogger.o
 .group         0x0000000000000000        0x8 ./Logging/EventLogger.o
 .group         0x0000000000000000        0x8 ./Logging/EventLogger.o
 .group         0x0000000000000000        0x8 ./Logging/EventLogger.o
 .group         0x0000000000000000        0x8 ./Logging/EventLogger.o
 .group         0x0000000000000000        0x8 ./Logging/EventLogger.o
 .group         0x0000000000000000        0x8 ./Logging/EventLogger.o
 .group         0x0000000000000000        0x8 ./Logging/EventLogger.o
 .group         0x0000000000000000        0x8 ./Logging/EventLogger.o
 .group         0x0000000000000000        0x8 ./Logging/EventLogger.o
 .group         0x0000000000000000        0x8 ./Logging/EventLogger.o
 .group         0x0000000000000000        0x8 ./Logging/EventLogger.o
 .group         0x0000000000000000        0x8 ./Logging/EventLogger.o
 .group         0x0000000000000000        0x8 ./Logging/EventLogger.o
 .group         0x0000000000000000        0x8 ./Logging/EventLogger.o
 .group         0x0000000000000000        0x8 ./Logging/EventLogger.o
 .group         0x0000000000000000        0x8 ./Logging/EventLogger.o
 .group         0x0000000000000000        0x8 ./Logging/EventLogger.o
 .group         0x0000000000000000        0x8 ./Logging/EventLogger.o
 .group         0x0000000000000000        0x8 ./Logging/EventLogger.o
 .group         0x0000000000000000        0x8 ./Logging/EventLogger.o
 .group         0x0000000000000000        0x8 ./Logging/EventLogger.o
 .group         0x0000000000000000        0x8 ./Logging/EventLogger.o
 .group         0x0000000000000000        0x8 ./Logging/EventLogger.o
 .group         0x0000000000000000        0x8 ./Logging/EventLogger.o
 .group         0x0000000000000000        0x8 ./Logging/EventLogger.o
 .group         0x0000000000000000        0x8 ./Logging/EventLogger.o
 .group         0x0000000000000000        0x8 ./Logging/EventLogger.o
 .group         0x0000000000000000        0x8 ./Logging/EventLogger.o
 .group         0x0000000000000000        0x8 ./Logging/EventLogger.o
 .group         0x0000000000000000        0x8 ./Logging/EventLogger.o
 .text._ZnwmPv  0x0000000000000000       0x12 ./Logging/EventLogger.o
 .text._ZdlPvS_
                0x0000000000000000        0xe ./Logging/EventLogger.o
 .data.DW.ref.__gxx_personality_v0
                0x0000000000000000        0x8 ./Logging/EventLogger.o
 .note.GNU-stack
                0x0000000000000000        0x0 ./Logging/EventLogger.o
 .group         0x0000000000000000        0x8 ./Logging/JsonLogProvider.o
 .group         0x0000000000000000        0x8 ./Logging/JsonLogProvider.o
 .group         0x0000000000000000        0x8 ./Logging/JsonLogProvider.o
 .group         0x0000000000000000        0x8 ./Logging/JsonLogProvider.o
 .group         0x0000000000000000        0x8 ./Logging/JsonLogProvider.o
 .group         0x0000000000000000        0x8 ./Logging/JsonLogProvider.o
 .group         0x0000000000000000        0x8 ./Logging/JsonLogProvider.o
 .group         0x0000000000000000        0x8 ./Logging/JsonLogProvider.o
 .group         0x0000000000000000        0x8 ./Logging/JsonLogProvider.o
 .group         0x0000000000000000        0x8 ./Logging/JsonLogProvider.o
 .group         0x0000000000000000        0x8 ./Logging/JsonLogProvider.o
 .group         0x0000000000000000        0x8 ./Logging/JsonLogProvider.o
 .group         0x0000000000000000        0x8 ./Logging/JsonLogProvider.o
 .group         0x0000000000000000        0x8 ./Logging/JsonLogProvider.o
 .group         0x0000000000000000        0x8 ./Logging/JsonLogProvider.o
 .group         0x0000000000000000        0x8 ./Logging/JsonLogProvider.o
 .group         0x0000000000000000        0x8 ./Logging/JsonLogProvider.o
 .group         0x0000000000000000        0x8 ./Logging/JsonLogProvider.o
 .group         0x0000000000000000        0x8 ./Logging/JsonLogProvider.o
 .group         0x0000000000000000        0x8 ./Logging/JsonLogProvider.o
 .group         0x0000000000000000        0x8 ./Logging/JsonLogProvider.o
 .group         0x0000000000000000        0x8 ./Logging/JsonLogProvider.o
 .group         0x0000000000000000        0x8 ./Logging/JsonLogProvider.o
 .group         0x0000000000000000        0x8 ./Logging/JsonLogProvider.o
 .group         0x0000000000000000        0x8 ./Logging/JsonLogProvider.o
 .group         0x0000000000000000        0x8 ./Logging/JsonLogProvider.o
 .group         0x0000000000000000        0x8 ./Logging/JsonLogProvider.o
 .group         0x0000000000000000        0x8 ./Logging/JsonLogProvider.o
 .group         0x0000000000000000        0x8 ./Logging/JsonLogProvider.o
 .group         0x0000000000000000        0x8 ./Logging/JsonLogProvider.o
 .group         0x0000000000000000        0x8 ./Logging/JsonLogProvider.o
 .group         0x0000000000000000        0x8 ./Logging/JsonLogProvider.o
 .group         0x0000000000000000        0x8 ./Logging/JsonLogProvider.o
 .group         0x0000000000000000        0x8 ./Logging/JsonLogProvider.o
 .group         0x0000000000000000        0x8 ./Logging/JsonLogProvider.o
 .group         0x0000000000000000        0x8 ./Logging/JsonLogProvider.o
 .group         0x0000000000000000        0x8 ./Logging/JsonLogProvider.o
 .group         0x0000000000000000        0x8 ./Logging/JsonLogProvider.o
 .group         0x0000000000000000        0x8 ./Logging/JsonLogProvider.o
 .group         0x0000000000000000        0x8 ./Logging/JsonLogProvider.o
 .group         0x0000000000000000        0x8 ./Logging/JsonLogProvider.o
 .group         0x0000000000000000        0x8 ./Logging/JsonLogProvider.o
 .group         0x0000000000000000        0x8 ./Logging/JsonLogProvider.o
 .group         0x0000000000000000        0x8 ./Logging/JsonLogProvider.o
 .group         0x0000000000000000        0x8 ./Logging/JsonLogProvider.o
 .group         0x0000000000000000        0x8 ./Logging/JsonLogProvider.o
 .group         0x0000000000000000        0x8 ./Logging/JsonLogProvider.o
 .group         0x0000000000000000        0x8 ./Logging/JsonLogProvider.o
 .group         0x0000000000000000        0x8 ./Logging/JsonLogProvider.o
 .group         0x0000000000000000        0x8 ./Logging/JsonLogProvider.o
 .group         0x0000000000000000        0x8 ./Logging/JsonLogProvider.o
 .group         0x0000000000000000        0x8 ./Logging/JsonLogProvider.o
 .group         0x0000000000000000        0x8 ./Logging/JsonLogProvider.o
 .group         0x0000000000000000        0x8 ./Logging/JsonLogProvider.o
 .group         0x0000000000000000        0x8 ./Logging/JsonLogProvider.o
 .group         0x0000000000000000        0x8 ./Logging/JsonLogProvider.o
 .group         0x0000000000000000        0x8 ./Logging/JsonLogProvider.o
 .text._ZnwmPv  0x0000000000000000       0x12 ./Logging/JsonLogProvider.o
 .text._ZdlPvS_
                0x0000000000000000        0xe ./Logging/JsonLogProvider.o
 .text._ZNSt11char_traitsIcE6lengthEPKc
                0x0000000000000000       0x31 ./Logging/JsonLogProvider.o
 .text._ZNSt4listISsSaISsEED2Ev
                0x0000000000000000       0x1a ./Logging/JsonLogProvider.o
 .text._ZNSt4listISsSaISsEEC2Ev
                0x0000000000000000       0x1a ./Logging/JsonLogProvider.o
 .text._ZNSt10_List_baseISsSaISsEE10_List_implD2Ev
                0x0000000000000000       0x1a ./Logging/JsonLogProvider.o
 .text._ZNSt10_List_baseISsSaISsEED2Ev
                0x0000000000000000       0x46 ./Logging/JsonLogProvider.o
 .text._ZStplIcSt11char_traitsIcESaIcEESbIT_T0_T1_EPKS3_RKS6_
                0x0000000000000000       0xa4 ./Logging/JsonLogProvider.o
 .text._ZStplIcSt11char_traitsIcESaIcEESbIT_T0_T1_ERKS6_PKS3_
                0x0000000000000000       0x62 ./Logging/JsonLogProvider.o
 .text._ZStplIcSt11char_traitsIcESaIcEESbIT_T0_T1_ERKS6_S8_
                0x0000000000000000       0x62 ./Logging/JsonLogProvider.o
 .text._ZNSt10_List_baseISsSaISsEEC2Ev
                0x0000000000000000       0x48 ./Logging/JsonLogProvider.o
 .text._ZNSaISt10_List_nodeISsEED2Ev
                0x0000000000000000       0x1a ./Logging/JsonLogProvider.o
 .text._ZNSt10_List_baseISsSaISsEE8_M_clearEv
                0x0000000000000000       0xb3 ./Logging/JsonLogProvider.o
 .text._ZNSt10_List_baseISsSaISsEE10_List_implC2Ev
                0x0000000000000000       0x31 ./Logging/JsonLogProvider.o
 .text._ZNSt10_List_baseISsSaISsEE7_M_initEv
                0x0000000000000000       0x21 ./Logging/JsonLogProvider.o
 .text._ZN9__gnu_cxx13new_allocatorISt10_List_nodeISsEED2Ev
                0x0000000000000000        0xa ./Logging/JsonLogProvider.o
 .text._ZNKSt10_List_baseISsSaISsEE19_M_get_Tp_allocatorEv
                0x0000000000000000       0x34 ./Logging/JsonLogProvider.o
 .text._ZNSaISsED2Ev
                0x0000000000000000       0x1a ./Logging/JsonLogProvider.o
 .text._ZSt11__addressofISsEPT_RS0_
                0x0000000000000000        0xe ./Logging/JsonLogProvider.o
 .text._ZN9__gnu_cxx13new_allocatorISsE7destroyEPSs
                0x0000000000000000       0x1e ./Logging/JsonLogProvider.o
 .text._ZNSt10_List_baseISsSaISsEE11_M_put_nodeEPSt10_List_nodeISsE
                0x0000000000000000       0x2a ./Logging/JsonLogProvider.o
 .text._ZNSaISt10_List_nodeISsEEC2Ev
                0x0000000000000000       0x1a ./Logging/JsonLogProvider.o
 .text._ZNKSt10_List_baseISsSaISsEE21_M_get_Node_allocatorEv
                0x0000000000000000        0xe ./Logging/JsonLogProvider.o
 .text._ZNSaISsEC2ISt10_List_nodeISsEEERKSaIT_E
                0x0000000000000000       0x1e ./Logging/JsonLogProvider.o
 .text._ZN9__gnu_cxx13new_allocatorISsED2Ev
                0x0000000000000000        0xa ./Logging/JsonLogProvider.o
 .text._ZN9__gnu_cxx13new_allocatorISt10_List_nodeISsEE10deallocateEPS2_m
                0x0000000000000000       0x22 ./Logging/JsonLogProvider.o
 .text._ZN9__gnu_cxx13new_allocatorISt10_List_nodeISsEEC2Ev
                0x0000000000000000        0xa ./Logging/JsonLogProvider.o
 .text._ZN9__gnu_cxx13new_allocatorISsEC2Ev
                0x0000000000000000        0xa ./Logging/JsonLogProvider.o
 .data.DW.ref.__gxx_personality_v0
                0x0000000000000000        0x8 ./Logging/JsonLogProvider.o
 .note.GNU-stack
                0x0000000000000000        0x0 ./Logging/JsonLogProvider.o
 .group         0x0000000000000000        0x8 ./Logging/SysLogProvider.o
 .group         0x0000000000000000        0x8 ./Logging/SysLogProvider.o
 .group         0x0000000000000000        0x8 ./Logging/SysLogProvider.o
 .note.GNU-stack
                0x0000000000000000        0x0 ./Logging/SysLogProvider.o
 .note.GNU-stack
                0x0000000000000000        0x0 /usr/lib/x86_64-linux-gnu/libc_nonshared.a(stat.oS)
 .note.GNU-stack
                0x0000000000000000        0x0 /usr/lib/gcc/x86_64-linux-gnu/4.6/crtendS.o
 .note.GNU-stack
                0x0000000000000000        0x0 /usr/lib/gcc/x86_64-linux-gnu/4.6/../../../x86_64-linux-gnu/crtn.o
 .gnu_debuglink
                0x0000000000000000        0xc /usr/lib/gcc/x86_64-linux-gnu/4.6/../../../x86_64-linux-gnu/crtn.o

Memory Configuration

Name             Origin             Length             Attributes
*default*        0x0000000000000000 0xffffffffffffffff

Linker script and memory map

LOAD /usr/lib/gcc/x86_64-linux-gnu/4.6/../../../x86_64-linux-gnu/crti.o
LOAD /usr/lib/gcc/x86_64-linux-gnu/4.6/crtbeginS.o
LOAD ./BaseDevice.o
LOAD ./BaseDriver.o
LOAD ./Command.o
LOAD ./Configuration.o
LOAD ./ConnectionPoint.o
LOAD ./Convert.o
LOAD ./DataSerializationManager.o
LOAD ./Event.o
LOAD ./InConnectionPoint.o
LOAD ./JsonParameters.o
LOAD ./LogEntry.o
LOAD ./OutConnectionPoint.o
LOAD ./Pinout.o
LOAD ./Process.o
LOAD ./Program.o
LOAD ./Wire.o
LOAD ./Logging/BaseLogProvider.o
LOAD ./Logging/EventLogger.o
LOAD ./Logging/JsonLogProvider.o
LOAD ./Logging/SysLogProvider.o
LOAD /usr/lib/gcc/x86_64-linux-gnu/4.6/libstdc++.so
LOAD /usr/lib/gcc/x86_64-linux-gnu/4.6/../../../x86_64-linux-gnu/libm.so
LOAD /usr/lib/gcc/x86_64-linux-gnu/4.6/libgcc_s.so
LOAD /usr/lib/gcc/x86_64-linux-gnu/4.6/../../../x86_64-linux-gnu/libc.so
START GROUP
LOAD /lib/x86_64-linux-gnu/libc.so.6
LOAD /usr/lib/x86_64-linux-gnu/libc_nonshared.a
LOAD /lib/x86_64-linux-gnu/ld-linux-x86-64.so.2
END GROUP
LOAD /usr/lib/gcc/x86_64-linux-gnu/4.6/libgcc_s.so
LOAD /usr/lib/gcc/x86_64-linux-gnu/4.6/crtendS.o
LOAD /usr/lib/gcc/x86_64-linux-gnu/4.6/../../../x86_64-linux-gnu/crtn.o
                0x00000000000001c8                . = (0x0 + SIZEOF_HEADERS)

.note.gnu.build-id
                0x00000000000001c8       0x24
 *(.note.gnu.build-id)
 .note.gnu.build-id
                0x00000000000001c8       0x24 /usr/lib/gcc/x86_64-linux-gnu/4.6/../../../x86_64-linux-gnu/crti.o

.hash
 *(.hash)

.gnu.hash       0x00000000000001f0     0x29fc
 *(.gnu.hash)
 .gnu.hash      0x00000000000001f0     0x29fc /usr/lib/gcc/x86_64-linux-gnu/4.6/../../../x86_64-linux-gnu/crti.o

.dynsym         0x0000000000002bf0     0x8af0
 *(.dynsym)
 .dynsym        0x0000000000002bf0     0x8af0 /usr/lib/gcc/x86_64-linux-gnu/4.6/../../../x86_64-linux-gnu/crti.o

.dynstr         0x000000000000b6e0    0x105fc
 *(.dynstr)
 .dynstr        0x000000000000b6e0    0x105fc /usr/lib/gcc/x86_64-linux-gnu/4.6/../../../x86_64-linux-gnu/crti.o

.gnu.version    0x000000000001bcdc      0xb94
 *(.gnu.version)
 .gnu.version   0x000000000001bcdc      0xb94 /usr/lib/gcc/x86_64-linux-gnu/4.6/../../../x86_64-linux-gnu/crti.o

.gnu.version_d  0x000000000001c870        0x0
 *(.gnu.version_d)
 .gnu.version_d
                0x0000000000000000        0x0 /usr/lib/gcc/x86_64-linux-gnu/4.6/../../../x86_64-linux-gnu/crti.o

.gnu.version_r  0x000000000001c870       0x90
 *(.gnu.version_r)
 .gnu.version_r
                0x000000000001c870       0x90 /usr/lib/gcc/x86_64-linux-gnu/4.6/../../../x86_64-linux-gnu/crti.o

.rela.dyn       0x000000000001c900     0x2160
 *(.rela.init)
 *(.rela.text .rela.text.* .rela.gnu.linkonce.t.*)
 .rela.text     0x0000000000000000        0x0 /usr/lib/gcc/x86_64-linux-gnu/4.6/../../../x86_64-linux-gnu/crti.o
 *(.rela.fini)
 *(.rela.rodata .rela.rodata.* .rela.gnu.linkonce.r.*)
 *(.rela.data .rela.data.* .rela.gnu.linkonce.d.*)
 .rela.data.rel
                0x000000000001c900       0x18 /usr/lib/gcc/x86_64-linux-gnu/4.6/../../../x86_64-linux-gnu/crti.o
 .rela.data.rel.ro._ZTV10BaseDevice
                0x000000000001c918      0x240 /usr/lib/gcc/x86_64-linux-gnu/4.6/../../../x86_64-linux-gnu/crti.o
 .rela.data.rel.ro._ZTV9ErrorItem
                0x000000000001cb58       0x48 /usr/lib/gcc/x86_64-linux-gnu/4.6/../../../x86_64-linux-gnu/crti.o
 .rela.data.rel.ro._ZTV13IRefreshValue
                0x000000000001cba0       0x30 /usr/lib/gcc/x86_64-linux-gnu/4.6/../../../x86_64-linux-gnu/crti.o
 .rela.data.rel.ro._ZTV13IValueChanged
                0x000000000001cbd0       0x30 /usr/lib/gcc/x86_64-linux-gnu/4.6/../../../x86_64-linux-gnu/crti.o
 .rela.data.rel.ro._ZTI10BaseDevice
                0x000000000001cc00       0x60 /usr/lib/gcc/x86_64-linux-gnu/4.6/../../../x86_64-linux-gnu/crti.o
 .rela.data.rel.ro._ZTI9ErrorItem
                0x000000000001cc60       0x30 /usr/lib/gcc/x86_64-linux-gnu/4.6/../../../x86_64-linux-gnu/crti.o
 .rela.data.rel.ro._ZTI13IRefreshValue
                0x000000000001cc90       0x30 /usr/lib/gcc/x86_64-linux-gnu/4.6/../../../x86_64-linux-gnu/crti.o
 .rela.data.rel.ro._ZTI13IValueChanged
                0x000000000001ccc0       0x30 /usr/lib/gcc/x86_64-linux-gnu/4.6/../../../x86_64-linux-gnu/crti.o
 .rela.data.rel.ro.local
                0x000000000001ccf0      0x198 /usr/lib/gcc/x86_64-linux-gnu/4.6/../../../x86_64-linux-gnu/crti.o
 .rela.data.DW.ref.__gxx_personality_v0
                0x000000000001ce88       0x18 /usr/lib/gcc/x86_64-linux-gnu/4.6/../../../x86_64-linux-gnu/crti.o
 .rela.data.rel.ro._ZTV10BaseDriver
                0x000000000001cea0      0x138 /usr/lib/gcc/x86_64-linux-gnu/4.6/../../../x86_64-linux-gnu/crti.o
 .rela.data.rel.ro._ZTV13DriverCommand
                0x000000000001cfd8       0x78 /usr/lib/gcc/x86_64-linux-gnu/4.6/../../../x86_64-linux-gnu/crti.o
 .rela.data.rel.ro._ZTI10BaseDriver
                0x000000000001d050       0x48 /usr/lib/gcc/x86_64-linux-gnu/4.6/../../../x86_64-linux-gnu/crti.o
 .rela.data.rel.ro._ZTI13DriverCommand
                0x000000000001d098       0x30 /usr/lib/gcc/x86_64-linux-gnu/4.6/../../../x86_64-linux-gnu/crti.o
 .rela.data.rel.ro._ZTV7Command
                0x000000000001d0c8       0x60 /usr/lib/gcc/x86_64-linux-gnu/4.6/../../../x86_64-linux-gnu/crti.o
 .rela.data.rel.ro._ZTI7Command
                0x000000000001d128       0x30 /usr/lib/gcc/x86_64-linux-gnu/4.6/../../../x86_64-linux-gnu/crti.o
 .rela.data.rel.ro._ZTV13Configuration
                0x000000000001d158       0x48 /usr/lib/gcc/x86_64-linux-gnu/4.6/../../../x86_64-linux-gnu/crti.o
 .rela.data.rel.ro._ZTI13Configuration
                0x000000000001d1a0       0x30 /usr/lib/gcc/x86_64-linux-gnu/4.6/../../../x86_64-linux-gnu/crti.o
 .rela.data.rel.ro._ZTV15ConnectionPoint
                0x000000000001d1d0       0xd8 /usr/lib/gcc/x86_64-linux-gnu/4.6/../../../x86_64-linux-gnu/crti.o
 .rela.data.rel.ro._ZTI15ConnectionPoint
                0x000000000001d2a8       0x30 /usr/lib/gcc/x86_64-linux-gnu/4.6/../../../x86_64-linux-gnu/crti.o
 .rela.data.rel.ro._ZTV24DataSerializationManager
                0x000000000001d2d8       0x48 /usr/lib/gcc/x86_64-linux-gnu/4.6/../../../x86_64-linux-gnu/crti.o
 .rela.data.rel.ro._ZTI24DataSerializationManager
                0x000000000001d320       0x30 /usr/lib/gcc/x86_64-linux-gnu/4.6/../../../x86_64-linux-gnu/crti.o
 .rela.data.rel.ro._ZTV5Event
                0x000000000001d350       0x60 /usr/lib/gcc/x86_64-linux-gnu/4.6/../../../x86_64-linux-gnu/crti.o
 .rela.data.rel.ro._ZTI5Event
                0x000000000001d3b0       0x30 /usr/lib/gcc/x86_64-linux-gnu/4.6/../../../x86_64-linux-gnu/crti.o
 .rela.data.rel.ro._ZTV17InConnectionPoint
                0x000000000001d3e0       0xd8 /usr/lib/gcc/x86_64-linux-gnu/4.6/../../../x86_64-linux-gnu/crti.o
 .rela.data.rel.ro._ZTI17InConnectionPoint
                0x000000000001d4b8       0x48 /usr/lib/gcc/x86_64-linux-gnu/4.6/../../../x86_64-linux-gnu/crti.o
 .rela.data.rel.ro._ZTV8LogEntry
                0x000000000001d500       0x48 /usr/lib/gcc/x86_64-linux-gnu/4.6/../../../x86_64-linux-gnu/crti.o
 .rela.data.rel.ro._ZTI8LogEntry
                0x000000000001d548       0x30 /usr/lib/gcc/x86_64-linux-gnu/4.6/../../../x86_64-linux-gnu/crti.o
 .rela.data.rel.ro._ZTV18OutConnectionPoint
                0x000000000001d578       0xd8 /usr/lib/gcc/x86_64-linux-gnu/4.6/../../../x86_64-linux-gnu/crti.o
 .rela.data.rel.ro._ZTI18OutConnectionPoint
                0x000000000001d650       0x48 /usr/lib/gcc/x86_64-linux-gnu/4.6/../../../x86_64-linux-gnu/crti.o
 .rela.data.rel.ro._ZTV6Pinout
                0x000000000001d698       0x48 /usr/lib/gcc/x86_64-linux-gnu/4.6/../../../x86_64-linux-gnu/crti.o
 .rela.data.rel.ro._ZTI6Pinout
                0x000000000001d6e0       0x30 /usr/lib/gcc/x86_64-linux-gnu/4.6/../../../x86_64-linux-gnu/crti.o
 .rela.data.rel.ro._ZTV7Process
                0x000000000001d710       0x78 /usr/lib/gcc/x86_64-linux-gnu/4.6/../../../x86_64-linux-gnu/crti.o
 .rela.data.rel.ro._ZTV13IErrorHandler
                0x000000000001d788       0x30 /usr/lib/gcc/x86_64-linux-gnu/4.6/../../../x86_64-linux-gnu/crti.o
 .rela.data.rel.ro._ZTI7Process
                0x000000000001d7b8       0x48 /usr/lib/gcc/x86_64-linux-gnu/4.6/../../../x86_64-linux-gnu/crti.o
 .rela.data.rel.ro._ZTI13IErrorHandler
                0x000000000001d800       0x30 /usr/lib/gcc/x86_64-linux-gnu/4.6/../../../x86_64-linux-gnu/crti.o
 .rela.data.rel.ro._ZTV7Program
                0x000000000001d830       0x48 /usr/lib/gcc/x86_64-linux-gnu/4.6/../../../x86_64-linux-gnu/crti.o
 .rela.data.rel.ro._ZTI7Program
                0x000000000001d878       0x30 /usr/lib/gcc/x86_64-linux-gnu/4.6/../../../x86_64-linux-gnu/crti.o
 .rela.data.rel.ro._ZTV4Wire
                0x000000000001d8a8       0xa8 /usr/lib/gcc/x86_64-linux-gnu/4.6/../../../x86_64-linux-gnu/crti.o
 .rela.data.rel.ro._ZTI4Wire
                0x000000000001d950       0x60 /usr/lib/gcc/x86_64-linux-gnu/4.6/../../../x86_64-linux-gnu/crti.o
 .rela.data.rel.ro._ZTV15BaseLogProvider
                0x000000000001d9b0      0x138 /usr/lib/gcc/x86_64-linux-gnu/4.6/../../../x86_64-linux-gnu/crti.o
 .rela.data.rel.ro._ZTI15BaseLogProvider
                0x000000000001dae8       0x30 /usr/lib/gcc/x86_64-linux-gnu/4.6/../../../x86_64-linux-gnu/crti.o
 .rela.data.rel.ro._ZTV11EventLogger
                0x000000000001db18      0x108 /usr/lib/gcc/x86_64-linux-gnu/4.6/../../../x86_64-linux-gnu/crti.o
 .rela.data.rel.ro._ZTI11EventLogger
                0x000000000001dc20       0x30 /usr/lib/gcc/x86_64-linux-gnu/4.6/../../../x86_64-linux-gnu/crti.o
 .rela.data.rel.ro._ZTV15JsonLogProvider
                0x000000000001dc50      0x138 /usr/lib/gcc/x86_64-linux-gnu/4.6/../../../x86_64-linux-gnu/crti.o
 .rela.data.rel.ro._ZTI15JsonLogProvider
                0x000000000001dd88       0x48 /usr/lib/gcc/x86_64-linux-gnu/4.6/../../../x86_64-linux-gnu/crti.o
 .rela.data.rel.ro._ZTV14SysLogProvider
                0x000000000001ddd0      0x150 /usr/lib/gcc/x86_64-linux-gnu/4.6/../../../x86_64-linux-gnu/crti.o
 .rela.data.rel.ro._ZTI14SysLogProvider
                0x000000000001df20       0x48 /usr/lib/gcc/x86_64-linux-gnu/4.6/../../../x86_64-linux-gnu/crti.o
 *(.rela.tdata .rela.tdata.* .rela.gnu.linkonce.td.*)
 *(.rela.tbss .rela.tbss.* .rela.gnu.linkonce.tb.*)
 *(.rela.ctors)
 .rela.ctors    0x000000000001df68      0x1c8 /usr/lib/gcc/x86_64-linux-gnu/4.6/../../../x86_64-linux-gnu/crti.o
 *(.rela.dtors)
 *(.rela.got)
 .rela.got      0x000000000001e130      0x930 /usr/lib/gcc/x86_64-linux-gnu/4.6/../../../x86_64-linux-gnu/crti.o
 *(.rela.bss .rela.bss.* .rela.gnu.linkonce.b.*)
 *(.rela.ldata .rela.ldata.* .rela.gnu.linkonce.l.*)
 *(.rela.lbss .rela.lbss.* .rela.gnu.linkonce.lb.*)
 *(.rela.lrodata .rela.lrodata.* .rela.gnu.linkonce.lr.*)
 *(.rela.ifunc)
 .rela.ifunc    0x0000000000000000        0x0 /usr/lib/gcc/x86_64-linux-gnu/4.6/../../../x86_64-linux-gnu/crti.o
 .rela.eh_frame
                0x0000000000000000        0x0 /usr/lib/gcc/x86_64-linux-gnu/4.6/../../../x86_64-linux-gnu/crti.o

.rela.plt       0x000000000001ea60     0x50d0
 *(.rela.plt)
 .rela.plt      0x000000000001ea60     0x50d0 /usr/lib/gcc/x86_64-linux-gnu/4.6/../../../x86_64-linux-gnu/crti.o
 *(.rela.iplt)

.init           0x0000000000023b30       0x18
 *(.init)
 .init          0x0000000000023b30        0x9 /usr/lib/gcc/x86_64-linux-gnu/4.6/../../../x86_64-linux-gnu/crti.o
                0x0000000000023b30                _init
 .init          0x0000000000023b39        0x5 /usr/lib/gcc/x86_64-linux-gnu/4.6/crtbeginS.o
 .init          0x0000000000023b3e        0x5 /usr/lib/gcc/x86_64-linux-gnu/4.6/crtendS.o
 .init          0x0000000000023b43        0x5 /usr/lib/gcc/x86_64-linux-gnu/4.6/../../../x86_64-linux-gnu/crtn.o

.plt            0x0000000000023b50     0x35f0
 *(.plt)
 .plt           0x0000000000023b50     0x35f0 /usr/lib/gcc/x86_64-linux-gnu/4.6/../../../x86_64-linux-gnu/crti.o
 *(.iplt)

.text           0x0000000000027140    0x18e78
 *(.text.unlikely .text.*_unlikely)
 *(.text.exit .text.exit.*)
 *(.text.startup .text.startup.*)
 *(.text.hot .text.hot.*)
 *(.text .stub .text.* .gnu.linkonce.t.*)
 .text          0x0000000000027140       0x17 /usr/lib/gcc/x86_64-linux-gnu/4.6/../../../x86_64-linux-gnu/crti.o
 *fill*         0x0000000000027157        0x9 90909090
 .text          0x0000000000027160       0xaa /usr/lib/gcc/x86_64-linux-gnu/4.6/crtbeginS.o
 *fill*         0x000000000002720a        0x2 90909090
 .text          0x000000000002720c     0x1da5 ./BaseDevice.o
                0x000000000002720c                _ZN10BaseDeviceC2Ev
                0x000000000002720c                _ZN10BaseDeviceC1Ev
                0x000000000002738e                _ZN10BaseDeviceD1Ev
                0x000000000002738e                _ZN10BaseDeviceD2Ev
                0x0000000000027616                _ZN10BaseDeviceD0Ev
                0x000000000002763c                _ZN10BaseDevice2IdEv
                0x000000000002764e                _ZN10BaseDevice5SetIdEi
                0x0000000000027666                _ZN10BaseDevice7SetNameESs
                0x0000000000027690                _ZN10BaseDevice11SetIsCustomEb
                0x00000000000276aa                _ZN10BaseDevice11GetIsCustomEv
                0x00000000000276bc                _ZN10BaseDevice13SetIsUpdatingEb
                0x00000000000276d6                _ZN10BaseDevice13GetIsUpdatingEv
                0x00000000000276e8                _ZN10BaseDevice17WidgetInitializedEv
                0x00000000000277ea                _ZN10BaseDevice4NameEv
                0x0000000000027808                _ZN10BaseDevice11DescriptionEv
                0x0000000000027826                _ZN10BaseDevice9GroupNameEv
                0x0000000000027844                _ZN10BaseDevice13IsInitializedEv
                0x0000000000027856                _ZN10BaseDevice7PinoutsEv
                0x0000000000027868                _ZN10BaseDevice16ConnectionPointsEv
                0x0000000000027896                _ZN10BaseDevice18GetConnectionPointEi
                0x000000000002793c                _ZN10BaseDevice20AreAllINsInitializedEv
                0x0000000000027a0e                _ZN10BaseDevice17AddCustomPropertyEP15DeviceParameter
                0x0000000000027a44                _ZN10BaseDevice12GetParameterESs
                0x0000000000027a6a                _ZN10BaseDevice12SetParameterESsPv
                0x0000000000027a7c                _ZN10BaseDevice14ExecuteCommandE7Command
                0x0000000000027a8a                _ZN10BaseDevice14EventTriggeredESt4listI14EventParameterSaIS1_EE
                0x0000000000027a98                _ZN10BaseDevice16ReleaseResourcesEv
                0x0000000000027aa2                _ZN10BaseDevice6ToJsonEv
                0x0000000000028976                _ZN10BaseDevice20InputPinValueChangedEPv
                0x0000000000028bf7                _ZThn8_N10BaseDevice7RefreshEPv
                0x0000000000028bfe                _ZN10BaseDevice7RefreshEPv
                0x0000000000028e32                _ZN10BaseDevice7OnErrorEi
                0x0000000000028e86                _ZN10BaseDevice7OnErrorEP9ErrorItem
                0x0000000000028f08                _ZN10BaseDevice20RegisterErrorHandlerEP13IErrorHandler
                0x0000000000028f46                _ZN10BaseDevice24InitializeFromDescriptorESt4listI8PropertySaIS1_EE
 .text._ZnwmPv  0x0000000000028fb1       0x12 ./BaseDevice.o
                0x0000000000028fb1                _ZnwmPv
 .text._ZNSt11char_traitsIcE6lengthEPKc
                0x0000000000028fc3       0x31 ./BaseDevice.o
                0x0000000000028fc3                _ZNSt11char_traitsIcE6lengthEPKc
 .text._ZN15DeviceParameterC2Ev
                0x0000000000028ff4       0xca ./BaseDevice.o
                0x0000000000028ff4                _ZN15DeviceParameterC2Ev
                0x0000000000028ff4                _ZN15DeviceParameterC1Ev
 .text._ZN15DeviceParameter4NameEv
                0x00000000000290be       0x29 ./BaseDevice.o
                0x00000000000290be                _ZN15DeviceParameter4NameEv
 *fill*         0x00000000000290e7        0x1 90909090
 .text._ZN15DeviceParameter4TypeEv
                0x00000000000290e8       0x2d ./BaseDevice.o
                0x00000000000290e8                _ZN15DeviceParameter4TypeEv
 *fill*         0x0000000000029115        0x1 90909090
 .text._ZN15DeviceParameter11StringValueEv
                0x0000000000029116       0x2d ./BaseDevice.o
                0x0000000000029116                _ZN15DeviceParameter11StringValueEv
 *fill*         0x0000000000029143        0x1 90909090
 .text._ZN15DeviceParameter11DescriptionEv
                0x0000000000029144       0x2d ./BaseDevice.o
                0x0000000000029144                _ZN15DeviceParameter11DescriptionEv
 *fill*         0x0000000000029171        0x1 90909090
 .text._ZN15DeviceParameter6ToJsonEv
                0x0000000000029172      0x664 ./BaseDevice.o
                0x0000000000029172                _ZN15DeviceParameter6ToJsonEv
 .text._ZN9ErrorItemC2Ei
                0x00000000000297d6       0x29 ./BaseDevice.o
                0x00000000000297d6                _ZN9ErrorItemC1Ei
                0x00000000000297d6                _ZN9ErrorItemC2Ei
 *fill*         0x00000000000297ff        0x1 90909090
 .text._ZN9ErrorItemD2Ev
                0x0000000000029800       0x71 ./BaseDevice.o
                0x0000000000029800                _ZN9ErrorItemD1Ev
                0x0000000000029800                _ZN9ErrorItemD2Ev
 *fill*         0x0000000000029871        0x1 90909090
 .text._ZN9ErrorItemD0Ev
                0x0000000000029872       0x26 ./BaseDevice.o
                0x0000000000029872                _ZN9ErrorItemD0Ev
 .text._ZN13IValueChangedC2Ev
                0x0000000000029898       0x1c ./BaseDevice.o
                0x0000000000029898                _ZN13IValueChangedC2Ev
                0x0000000000029898                _ZN13IValueChangedC1Ev
 .text._ZN13IRefreshValueC2Ev
                0x00000000000298b4       0x1c ./BaseDevice.o
                0x00000000000298b4                _ZN13IRefreshValueC2Ev
                0x00000000000298b4                _ZN13IRefreshValueC1Ev
 .text._ZNSt4listIP15ConnectionPointSaIS1_EED2Ev
                0x00000000000298d0       0x1a ./BaseDevice.o
                0x00000000000298d0                _ZNSt4listIP15ConnectionPointSaIS1_EED2Ev
                0x00000000000298d0                _ZNSt4listIP15ConnectionPointSaIS1_EED1Ev
 .text._ZNSt4listIP6PinoutSaIS1_EED2Ev
                0x00000000000298ea       0x1a ./BaseDevice.o
                0x00000000000298ea                _ZNSt4listIP6PinoutSaIS1_EED1Ev
                0x00000000000298ea                _ZNSt4listIP6PinoutSaIS1_EED2Ev
 .text._ZNSt4listIP15DeviceParameterSaIS1_EED2Ev
                0x0000000000029904       0x1a ./BaseDevice.o
                0x0000000000029904                _ZNSt4listIP15DeviceParameterSaIS1_EED2Ev
                0x0000000000029904                _ZNSt4listIP15DeviceParameterSaIS1_EED1Ev
 .text._ZStplIcSt11char_traitsIcESaIcEESbIT_T0_T1_EPKS3_RKS6_
                0x000000000002991e       0xa4 ./BaseDevice.o
                0x000000000002991e                _ZStplIcSt11char_traitsIcESaIcEESbIT_T0_T1_EPKS3_RKS6_
 .text._ZStplIcSt11char_traitsIcESaIcEESbIT_T0_T1_ERKS6_PKS3_
                0x00000000000299c2       0x62 ./BaseDevice.o
                0x00000000000299c2                _ZStplIcSt11char_traitsIcESaIcEESbIT_T0_T1_ERKS6_PKS3_
 .text._ZStplIcSt11char_traitsIcESaIcEESbIT_T0_T1_ERKS6_S8_
                0x0000000000029a24       0x62 ./BaseDevice.o
                0x0000000000029a24                _ZStplIcSt11char_traitsIcESaIcEESbIT_T0_T1_ERKS6_S8_
 .text._ZNSt4listIP15DeviceParameterSaIS1_EEC2Ev
                0x0000000000029a86       0x1a ./BaseDevice.o
                0x0000000000029a86                _ZNSt4listIP15DeviceParameterSaIS1_EEC1Ev
                0x0000000000029a86                _ZNSt4listIP15DeviceParameterSaIS1_EEC2Ev
 .text._ZNSt4listIP6PinoutSaIS1_EEC2Ev
                0x0000000000029aa0       0x1a ./BaseDevice.o
                0x0000000000029aa0                _ZNSt4listIP6PinoutSaIS1_EEC1Ev
                0x0000000000029aa0                _ZNSt4listIP6PinoutSaIS1_EEC2Ev
 .text._ZNSt14_List_iteratorIP15ConnectionPointEC2Ev
                0x0000000000029aba       0x15 ./BaseDevice.o
                0x0000000000029aba                _ZNSt14_List_iteratorIP15ConnectionPointEC2Ev
                0x0000000000029aba                _ZNSt14_List_iteratorIP15ConnectionPointEC1Ev
 *fill*         0x0000000000029acf        0x1 90909090
 .text._ZNSt4listIP15ConnectionPointSaIS1_EE5beginEv
                0x0000000000029ad0       0x28 ./BaseDevice.o
                0x0000000000029ad0                _ZNSt4listIP15ConnectionPointSaIS1_EE5beginEv
 .text._ZNSt4listIP15ConnectionPointSaIS1_EE3endEv
                0x0000000000029af8       0x25 ./BaseDevice.o
                0x0000000000029af8                _ZNSt4listIP15ConnectionPointSaIS1_EE3endEv
 *fill*         0x0000000000029b1d        0x1 90909090
 .text._ZNKSt14_List_iteratorIP15ConnectionPointEneERKS2_
                0x0000000000029b1e       0x22 ./BaseDevice.o
                0x0000000000029b1e                _ZNKSt14_List_iteratorIP15ConnectionPointEneERKS2_
 .text._ZNSt14_List_iteratorIP15ConnectionPointEppEi
                0x0000000000029b40       0x2d ./BaseDevice.o
                0x0000000000029b40                _ZNSt14_List_iteratorIP15ConnectionPointEppEi
 *fill*         0x0000000000029b6d        0x1 90909090
 .text._ZNKSt14_List_iteratorIP15ConnectionPointEdeEv
                0x0000000000029b6e       0x15 ./BaseDevice.o
                0x0000000000029b6e                _ZNKSt14_List_iteratorIP15ConnectionPointEdeEv
 *fill*         0x0000000000029b83        0x1 90909090
 .text._ZNSt10_List_baseIP15ConnectionPointSaIS1_EE10_List_implD2Ev
                0x0000000000029b84       0x1a ./BaseDevice.o
                0x0000000000029b84                _ZNSt10_List_baseIP15ConnectionPointSaIS1_EE10_List_implD1Ev
                0x0000000000029b84                _ZNSt10_List_baseIP15ConnectionPointSaIS1_EE10_List_implD2Ev
 .text._ZNSt10_List_baseIP15ConnectionPointSaIS1_EED2Ev
                0x0000000000029b9e       0x46 ./BaseDevice.o
                0x0000000000029b9e                _ZNSt10_List_baseIP15ConnectionPointSaIS1_EED1Ev
                0x0000000000029b9e                _ZNSt10_List_baseIP15ConnectionPointSaIS1_EED2Ev
 .text._ZNSt14_List_iteratorIP6PinoutEC2Ev
                0x0000000000029be4       0x15 ./BaseDevice.o
                0x0000000000029be4                _ZNSt14_List_iteratorIP6PinoutEC1Ev
                0x0000000000029be4                _ZNSt14_List_iteratorIP6PinoutEC2Ev
 *fill*         0x0000000000029bf9        0x1 90909090
 .text._ZNSt4listIP6PinoutSaIS1_EE5beginEv
                0x0000000000029bfa       0x28 ./BaseDevice.o
                0x0000000000029bfa                _ZNSt4listIP6PinoutSaIS1_EE5beginEv
 .text._ZNSt4listIP6PinoutSaIS1_EE3endEv
                0x0000000000029c22       0x25 ./BaseDevice.o
                0x0000000000029c22                _ZNSt4listIP6PinoutSaIS1_EE3endEv
 *fill*         0x0000000000029c47        0x1 90909090
 .text._ZNKSt14_List_iteratorIP6PinoutEneERKS2_
                0x0000000000029c48       0x22 ./BaseDevice.o
                0x0000000000029c48                _ZNKSt14_List_iteratorIP6PinoutEneERKS2_
 .text._ZNSt14_List_iteratorIP6PinoutEppEi
                0x0000000000029c6a       0x2d ./BaseDevice.o
                0x0000000000029c6a                _ZNSt14_List_iteratorIP6PinoutEppEi
 *fill*         0x0000000000029c97        0x1 90909090
 .text._ZNKSt14_List_iteratorIP6PinoutEdeEv
                0x0000000000029c98       0x15 ./BaseDevice.o
                0x0000000000029c98                _ZNKSt14_List_iteratorIP6PinoutEdeEv
 *fill*         0x0000000000029cad        0x1 90909090
 .text._ZNSt10_List_baseIP6PinoutSaIS1_EE10_List_implD2Ev
                0x0000000000029cae       0x1a ./BaseDevice.o
                0x0000000000029cae                _ZNSt10_List_baseIP6PinoutSaIS1_EE10_List_implD1Ev
                0x0000000000029cae                _ZNSt10_List_baseIP6PinoutSaIS1_EE10_List_implD2Ev
 .text._ZNSt10_List_baseIP6PinoutSaIS1_EED2Ev
                0x0000000000029cc8       0x46 ./BaseDevice.o
                0x0000000000029cc8                _ZNSt10_List_baseIP6PinoutSaIS1_EED2Ev
                0x0000000000029cc8                _ZNSt10_List_baseIP6PinoutSaIS1_EED1Ev
 .text._ZNSt10_List_baseIP15DeviceParameterSaIS1_EE10_List_implD2Ev
                0x0000000000029d0e       0x1a ./BaseDevice.o
                0x0000000000029d0e                _ZNSt10_List_baseIP15DeviceParameterSaIS1_EE10_List_implD2Ev
                0x0000000000029d0e                _ZNSt10_List_baseIP15DeviceParameterSaIS1_EE10_List_implD1Ev
 .text._ZNSt10_List_baseIP15DeviceParameterSaIS1_EED2Ev
                0x0000000000029d28       0x46 ./BaseDevice.o
                0x0000000000029d28                _ZNSt10_List_baseIP15DeviceParameterSaIS1_EED2Ev
                0x0000000000029d28                _ZNSt10_List_baseIP15DeviceParameterSaIS1_EED1Ev
 .text._ZNSt4listIP15ConnectionPointSaIS1_EEC2ERKS3_
                0x0000000000029d6e       0xc3 ./BaseDevice.o
                0x0000000000029d6e                _ZNSt4listIP15ConnectionPointSaIS1_EEC2ERKS3_
                0x0000000000029d6e                _ZNSt4listIP15ConnectionPointSaIS1_EEC1ERKS3_
 *fill*         0x0000000000029e31        0x1 90909090
 .text._ZNSt4listIP15DeviceParameterSaIS1_EE9push_backERKS1_
                0x0000000000029e32       0x34 ./BaseDevice.o
                0x0000000000029e32                _ZNSt4listIP15DeviceParameterSaIS1_EE9push_backERKS1_
 .text._ZNKSt4listIP15ConnectionPointSaIS1_EE4sizeEv
                0x0000000000029e66       0x3a ./BaseDevice.o
                0x0000000000029e66                _ZNKSt4listIP15ConnectionPointSaIS1_EE4sizeEv
 .text._ZNKSt4listIP6PinoutSaIS1_EE4sizeEv
                0x0000000000029ea0       0x3a ./BaseDevice.o
                0x0000000000029ea0                _ZNKSt4listIP6PinoutSaIS1_EE4sizeEv
 .text._ZNSt14_List_iteratorIP15DeviceParameterEC2Ev
                0x0000000000029eda       0x15 ./BaseDevice.o
                0x0000000000029eda                _ZNSt14_List_iteratorIP15DeviceParameterEC1Ev
                0x0000000000029eda                _ZNSt14_List_iteratorIP15DeviceParameterEC2Ev
 *fill*         0x0000000000029eef        0x1 90909090
 .text._ZNKSt4listIP15DeviceParameterSaIS1_EE4sizeEv
                0x0000000000029ef0       0x3a ./BaseDevice.o
                0x0000000000029ef0                _ZNKSt4listIP15DeviceParameterSaIS1_EE4sizeEv
 .text._ZNSt4listIP15DeviceParameterSaIS1_EE5beginEv
                0x0000000000029f2a       0x28 ./BaseDevice.o
                0x0000000000029f2a                _ZNSt4listIP15DeviceParameterSaIS1_EE5beginEv
 .text._ZNSt4listIP15DeviceParameterSaIS1_EE3endEv
                0x0000000000029f52       0x25 ./BaseDevice.o
                0x0000000000029f52                _ZNSt4listIP15DeviceParameterSaIS1_EE3endEv
 *fill*         0x0000000000029f77        0x1 90909090
 .text._ZNKSt14_List_iteratorIP15DeviceParameterEneERKS2_
                0x0000000000029f78       0x22 ./BaseDevice.o
                0x0000000000029f78                _ZNKSt14_List_iteratorIP15DeviceParameterEneERKS2_
 .text._ZNSt14_List_iteratorIP15DeviceParameterEppEi
                0x0000000000029f9a       0x2d ./BaseDevice.o
                0x0000000000029f9a                _ZNSt14_List_iteratorIP15DeviceParameterEppEi
 *fill*         0x0000000000029fc7        0x1 90909090
 .text._ZNKSt14_List_iteratorIP15DeviceParameterEdeEv
                0x0000000000029fc8       0x15 ./BaseDevice.o
                0x0000000000029fc8                _ZNKSt14_List_iteratorIP15DeviceParameterEdeEv
 *fill*         0x0000000000029fdd        0x1 90909090
 .text._ZNSt10_List_baseIP15DeviceParameterSaIS1_EEC2Ev
                0x0000000000029fde       0x48 ./BaseDevice.o
                0x0000000000029fde                _ZNSt10_List_baseIP15DeviceParameterSaIS1_EEC2Ev
                0x0000000000029fde                _ZNSt10_List_baseIP15DeviceParameterSaIS1_EEC1Ev
 .text._ZNSt10_List_baseIP6PinoutSaIS1_EEC2Ev
                0x000000000002a026       0x48 ./BaseDevice.o
                0x000000000002a026                _ZNSt10_List_baseIP6PinoutSaIS1_EEC1Ev
                0x000000000002a026                _ZNSt10_List_baseIP6PinoutSaIS1_EEC2Ev
 .text._ZNSt14_List_iteratorIP15ConnectionPointEC2EPNSt8__detail15_List_node_baseE
                0x000000000002a06e       0x19 ./BaseDevice.o
                0x000000000002a06e                _ZNSt14_List_iteratorIP15ConnectionPointEC2EPNSt8__detail15_List_node_baseE
                0x000000000002a06e                _ZNSt14_List_iteratorIP15ConnectionPointEC1EPNSt8__detail15_List_node_baseE
 *fill*         0x000000000002a087        0x1 90909090
 .text._ZNSaISt10_List_nodeIP15ConnectionPointEED2Ev
                0x000000000002a088       0x1a ./BaseDevice.o
                0x000000000002a088                _ZNSaISt10_List_nodeIP15ConnectionPointEED1Ev
                0x000000000002a088                _ZNSaISt10_List_nodeIP15ConnectionPointEED2Ev
 .text._ZNSt10_List_baseIP15ConnectionPointSaIS1_EE8_M_clearEv
                0x000000000002a0a2       0xb3 ./BaseDevice.o
                0x000000000002a0a2                _ZNSt10_List_baseIP15ConnectionPointSaIS1_EE8_M_clearEv
 *fill*         0x000000000002a155        0x1 90909090
 .text._ZNSt14_List_iteratorIP6PinoutEC2EPNSt8__detail15_List_node_baseE
                0x000000000002a156       0x19 ./BaseDevice.o
                0x000000000002a156                _ZNSt14_List_iteratorIP6PinoutEC2EPNSt8__detail15_List_node_baseE
                0x000000000002a156                _ZNSt14_List_iteratorIP6PinoutEC1EPNSt8__detail15_List_node_baseE
 *fill*         0x000000000002a16f        0x1 90909090
 .text._ZNSaISt10_List_nodeIP6PinoutEED2Ev
                0x000000000002a170       0x1a ./BaseDevice.o
                0x000000000002a170                _ZNSaISt10_List_nodeIP6PinoutEED2Ev
                0x000000000002a170                _ZNSaISt10_List_nodeIP6PinoutEED1Ev
 .text._ZNSt10_List_baseIP6PinoutSaIS1_EE8_M_clearEv
                0x000000000002a18a       0xb3 ./BaseDevice.o
                0x000000000002a18a                _ZNSt10_List_baseIP6PinoutSaIS1_EE8_M_clearEv
 *fill*         0x000000000002a23d        0x1 90909090
 .text._ZNSaISt10_List_nodeIP15DeviceParameterEED2Ev
                0x000000000002a23e       0x1a ./BaseDevice.o
                0x000000000002a23e                _ZNSaISt10_List_nodeIP15DeviceParameterEED2Ev
                0x000000000002a23e                _ZNSaISt10_List_nodeIP15DeviceParameterEED1Ev
 .text._ZNSt10_List_baseIP15DeviceParameterSaIS1_EE8_M_clearEv
                0x000000000002a258       0xb3 ./BaseDevice.o
                0x000000000002a258                _ZNSt10_List_baseIP15DeviceParameterSaIS1_EE8_M_clearEv
 *fill*         0x000000000002a30b        0x1 90909090
 .text._ZNKSt10_List_baseIP15ConnectionPointSaIS1_EE21_M_get_Node_allocatorEv
                0x000000000002a30c        0xe ./BaseDevice.o
                0x000000000002a30c                _ZNKSt10_List_baseIP15ConnectionPointSaIS1_EE21_M_get_Node_allocatorEv
 .text._ZNSaIP15ConnectionPointEC2ISt10_List_nodeIS0_EEERKSaIT_E
                0x000000000002a31a       0x1e ./BaseDevice.o
                0x000000000002a31a                _ZNSaIP15ConnectionPointEC2ISt10_List_nodeIS0_EEERKSaIT_E
                0x000000000002a31a                _ZNSaIP15ConnectionPointEC1ISt10_List_nodeIS0_EEERKSaIT_E
 .text._ZNSaIP15ConnectionPointED2Ev
                0x000000000002a338       0x1a ./BaseDevice.o
                0x000000000002a338                _ZNSaIP15ConnectionPointED1Ev
                0x000000000002a338                _ZNSaIP15ConnectionPointED2Ev
 .text._ZNSt10_List_baseIP15ConnectionPointSaIS1_EEC2ERKS2_
                0x000000000002a352       0x8c ./BaseDevice.o
                0x000000000002a352                _ZNSt10_List_baseIP15ConnectionPointSaIS1_EEC1ERKS2_
                0x000000000002a352                _ZNSt10_List_baseIP15ConnectionPointSaIS1_EEC2ERKS2_
 .text._ZNKSt4listIP15ConnectionPointSaIS1_EE5beginEv
                0x000000000002a3de       0x28 ./BaseDevice.o
                0x000000000002a3de                _ZNKSt4listIP15ConnectionPointSaIS1_EE5beginEv
 .text._ZNKSt4listIP15ConnectionPointSaIS1_EE3endEv
                0x000000000002a406       0x25 ./BaseDevice.o
                0x000000000002a406                _ZNKSt4listIP15ConnectionPointSaIS1_EE3endEv
 *fill*         0x000000000002a42b        0x1 90909090
 .text._ZNSt4listIP15ConnectionPointSaIS1_EE22_M_initialize_dispatchISt20_List_const_iteratorIS1_EEEvT_S7_St12__false_type
                0x000000000002a42c       0x59 ./BaseDevice.o
                0x000000000002a42c                _ZNSt4listIP15ConnectionPointSaIS1_EE22_M_initialize_dispatchISt20_List_const_iteratorIS1_EEEvT_S7_St12__false_type
 *fill*         0x000000000002a485        0x1 90909090
 .text._ZNSt4listIP15DeviceParameterSaIS1_EE9_M_insertESt14_List_iteratorIS1_ERKS1_
                0x000000000002a486       0x40 ./BaseDevice.o
                0x000000000002a486                _ZNSt4listIP15DeviceParameterSaIS1_EE9_M_insertESt14_List_iteratorIS1_ERKS1_
 .text._ZSt8distanceISt20_List_const_iteratorIP15ConnectionPointEENSt15iterator_traitsIT_E15difference_typeES5_S5_
                0x000000000002a4c6       0x3a ./BaseDevice.o
                0x000000000002a4c6                _ZSt8distanceISt20_List_const_iteratorIP15ConnectionPointEENSt15iterator_traitsIT_E15difference_typeES5_S5_
 .text._ZNKSt4listIP6PinoutSaIS1_EE5beginEv
                0x000000000002a500       0x28 ./BaseDevice.o
                0x000000000002a500                _ZNKSt4listIP6PinoutSaIS1_EE5beginEv
 .text._ZNKSt4listIP6PinoutSaIS1_EE3endEv
                0x000000000002a528       0x25 ./BaseDevice.o
                0x000000000002a528                _ZNKSt4listIP6PinoutSaIS1_EE3endEv
 .text._ZSt8distanceISt20_List_const_iteratorIP6PinoutEENSt15iterator_traitsIT_E15difference_typeES5_S5_
                0x000000000002a54d       0x3a ./BaseDevice.o
                0x000000000002a54d                _ZSt8distanceISt20_List_const_iteratorIP6PinoutEENSt15iterator_traitsIT_E15difference_typeES5_S5_
 *fill*         0x000000000002a587        0x1 90909090
 .text._ZNKSt4listIP15DeviceParameterSaIS1_EE5beginEv
                0x000000000002a588       0x28 ./BaseDevice.o
                0x000000000002a588                _ZNKSt4listIP15DeviceParameterSaIS1_EE5beginEv
 .text._ZNKSt4listIP15DeviceParameterSaIS1_EE3endEv
                0x000000000002a5b0       0x25 ./BaseDevice.o
                0x000000000002a5b0                _ZNKSt4listIP15DeviceParameterSaIS1_EE3endEv
 .text._ZSt8distanceISt20_List_const_iteratorIP15DeviceParameterEENSt15iterator_traitsIT_E15difference_typeES5_S5_
                0x000000000002a5d5       0x3a ./BaseDevice.o
                0x000000000002a5d5                _ZSt8distanceISt20_List_const_iteratorIP15DeviceParameterEENSt15iterator_traitsIT_E15difference_typeES5_S5_
 *fill*         0x000000000002a60f        0x1 90909090
 .text._ZNSt14_List_iteratorIP15DeviceParameterEC2EPNSt8__detail15_List_node_baseE
                0x000000000002a610       0x19 ./BaseDevice.o
                0x000000000002a610                _ZNSt14_List_iteratorIP15DeviceParameterEC2EPNSt8__detail15_List_node_baseE
                0x000000000002a610                _ZNSt14_List_iteratorIP15DeviceParameterEC1EPNSt8__detail15_List_node_baseE
 *fill*         0x000000000002a629        0x1 90909090
 .text._ZNSt10_List_baseIP15DeviceParameterSaIS1_EE10_List_implC2Ev
                0x000000000002a62a       0x31 ./BaseDevice.o
                0x000000000002a62a                _ZNSt10_List_baseIP15DeviceParameterSaIS1_EE10_List_implC1Ev
                0x000000000002a62a                _ZNSt10_List_baseIP15DeviceParameterSaIS1_EE10_List_implC2Ev
 *fill*         0x000000000002a65b        0x1 90909090
 .text._ZNSt10_List_baseIP15DeviceParameterSaIS1_EE7_M_initEv
                0x000000000002a65c       0x21 ./BaseDevice.o
                0x000000000002a65c                _ZNSt10_List_baseIP15DeviceParameterSaIS1_EE7_M_initEv
 *fill*         0x000000000002a67d        0x1 90909090
 .text._ZNSt10_List_baseIP6PinoutSaIS1_EE10_List_implC2Ev
                0x000000000002a67e       0x31 ./BaseDevice.o
                0x000000000002a67e                _ZNSt10_List_baseIP6PinoutSaIS1_EE10_List_implC2Ev
                0x000000000002a67e                _ZNSt10_List_baseIP6PinoutSaIS1_EE10_List_implC1Ev
 *fill*         0x000000000002a6af        0x1 90909090
 .text._ZNSt10_List_baseIP6PinoutSaIS1_EE7_M_initEv
                0x000000000002a6b0       0x21 ./BaseDevice.o
                0x000000000002a6b0                _ZNSt10_List_baseIP6PinoutSaIS1_EE7_M_initEv
 *fill*         0x000000000002a6d1        0x1 90909090
 .text._ZN9__gnu_cxx13new_allocatorISt10_List_nodeIP15ConnectionPointEED2Ev
                0x000000000002a6d2        0xa ./BaseDevice.o
                0x000000000002a6d2                _ZN9__gnu_cxx13new_allocatorISt10_List_nodeIP15ConnectionPointEED2Ev
                0x000000000002a6d2                _ZN9__gnu_cxx13new_allocatorISt10_List_nodeIP15ConnectionPointEED1Ev
 .text._ZNKSt10_List_baseIP15ConnectionPointSaIS1_EE19_M_get_Tp_allocatorEv
                0x000000000002a6dc       0x34 ./BaseDevice.o
                0x000000000002a6dc                _ZNKSt10_List_baseIP15ConnectionPointSaIS1_EE19_M_get_Tp_allocatorEv
 .text._ZSt11__addressofIP15ConnectionPointEPT_RS2_
                0x000000000002a710        0xe ./BaseDevice.o
                0x000000000002a710                _ZSt11__addressofIP15ConnectionPointEPT_RS2_
 .text._ZN9__gnu_cxx13new_allocatorIP15ConnectionPointE7destroyEPS2_
                0x000000000002a71e        0xe ./BaseDevice.o
                0x000000000002a71e                _ZN9__gnu_cxx13new_allocatorIP15ConnectionPointE7destroyEPS2_
 .text._ZNSt10_List_baseIP15ConnectionPointSaIS1_EE11_M_put_nodeEPSt10_List_nodeIS1_E
                0x000000000002a72c       0x2a ./BaseDevice.o
                0x000000000002a72c                _ZNSt10_List_baseIP15ConnectionPointSaIS1_EE11_M_put_nodeEPSt10_List_nodeIS1_E
 .text._ZN9__gnu_cxx13new_allocatorISt10_List_nodeIP6PinoutEED2Ev
                0x000000000002a756        0xa ./BaseDevice.o
                0x000000000002a756                _ZN9__gnu_cxx13new_allocatorISt10_List_nodeIP6PinoutEED1Ev
                0x000000000002a756                _ZN9__gnu_cxx13new_allocatorISt10_List_nodeIP6PinoutEED2Ev
 .text._ZNKSt10_List_baseIP6PinoutSaIS1_EE19_M_get_Tp_allocatorEv
                0x000000000002a760       0x34 ./BaseDevice.o
                0x000000000002a760                _ZNKSt10_List_baseIP6PinoutSaIS1_EE19_M_get_Tp_allocatorEv
 .text._ZNSaIP6PinoutED2Ev
                0x000000000002a794       0x1a ./BaseDevice.o
                0x000000000002a794                _ZNSaIP6PinoutED2Ev
                0x000000000002a794                _ZNSaIP6PinoutED1Ev
 .text._ZSt11__addressofIP6PinoutEPT_RS2_
                0x000000000002a7ae        0xe ./BaseDevice.o
                0x000000000002a7ae                _ZSt11__addressofIP6PinoutEPT_RS2_
 .text._ZN9__gnu_cxx13new_allocatorIP6PinoutE7destroyEPS2_
                0x000000000002a7bc        0xe ./BaseDevice.o
                0x000000000002a7bc                _ZN9__gnu_cxx13new_allocatorIP6PinoutE7destroyEPS2_
 .text._ZNSt10_List_baseIP6PinoutSaIS1_EE11_M_put_nodeEPSt10_List_nodeIS1_E
                0x000000000002a7ca       0x2a ./BaseDevice.o
                0x000000000002a7ca                _ZNSt10_List_baseIP6PinoutSaIS1_EE11_M_put_nodeEPSt10_List_nodeIS1_E
 .text._ZN9__gnu_cxx13new_allocatorISt10_List_nodeIP15DeviceParameterEED2Ev
                0x000000000002a7f4        0xa ./BaseDevice.o
                0x000000000002a7f4                _ZN9__gnu_cxx13new_allocatorISt10_List_nodeIP15DeviceParameterEED2Ev
                0x000000000002a7f4                _ZN9__gnu_cxx13new_allocatorISt10_List_nodeIP15DeviceParameterEED1Ev
 .text._ZNKSt10_List_baseIP15DeviceParameterSaIS1_EE19_M_get_Tp_allocatorEv
                0x000000000002a7fe       0x34 ./BaseDevice.o
                0x000000000002a7fe                _ZNKSt10_List_baseIP15DeviceParameterSaIS1_EE19_M_get_Tp_allocatorEv
 .text._ZNSaIP15DeviceParameterED2Ev
                0x000000000002a832       0x1a ./BaseDevice.o
                0x000000000002a832                _ZNSaIP15DeviceParameterED2Ev
                0x000000000002a832                _ZNSaIP15DeviceParameterED1Ev
 .text._ZSt11__addressofIP15DeviceParameterEPT_RS2_
                0x000000000002a84c        0xe ./BaseDevice.o
                0x000000000002a84c                _ZSt11__addressofIP15DeviceParameterEPT_RS2_
 .text._ZN9__gnu_cxx13new_allocatorIP15DeviceParameterE7destroyEPS2_
                0x000000000002a85a        0xe ./BaseDevice.o
                0x000000000002a85a                _ZN9__gnu_cxx13new_allocatorIP15DeviceParameterE7destroyEPS2_
 .text._ZNSt10_List_baseIP15DeviceParameterSaIS1_EE11_M_put_nodeEPSt10_List_nodeIS1_E
                0x000000000002a868       0x2a ./BaseDevice.o
                0x000000000002a868                _ZNSt10_List_baseIP15DeviceParameterSaIS1_EE11_M_put_nodeEPSt10_List_nodeIS1_E
 .text._ZN9__gnu_cxx13new_allocatorIP15ConnectionPointEC2Ev
                0x000000000002a892        0xa ./BaseDevice.o
                0x000000000002a892                _ZN9__gnu_cxx13new_allocatorIP15ConnectionPointEC1Ev
                0x000000000002a892                _ZN9__gnu_cxx13new_allocatorIP15ConnectionPointEC2Ev
 .text._ZN9__gnu_cxx13new_allocatorIP15ConnectionPointED2Ev
                0x000000000002a89c        0xa ./BaseDevice.o
                0x000000000002a89c                _ZN9__gnu_cxx13new_allocatorIP15ConnectionPointED2Ev
                0x000000000002a89c                _ZN9__gnu_cxx13new_allocatorIP15ConnectionPointED1Ev
 .text._ZNSaISt10_List_nodeIP15ConnectionPointEEC2IS1_EERKSaIT_E
                0x000000000002a8a6       0x1e ./BaseDevice.o
                0x000000000002a8a6                _ZNSaISt10_List_nodeIP15ConnectionPointEEC2IS1_EERKSaIT_E
                0x000000000002a8a6                _ZNSaISt10_List_nodeIP15ConnectionPointEEC1IS1_EERKSaIT_E
 .text._ZNSt10_List_baseIP15ConnectionPointSaIS1_EE10_List_implC2ERKSaISt10_List_nodeIS1_EE
                0x000000000002a8c4       0x3c ./BaseDevice.o
                0x000000000002a8c4                _ZNSt10_List_baseIP15ConnectionPointSaIS1_EE10_List_implC1ERKSaISt10_List_nodeIS1_EE
                0x000000000002a8c4                _ZNSt10_List_baseIP15ConnectionPointSaIS1_EE10_List_implC2ERKSaISt10_List_nodeIS1_EE
 .text._ZNSt10_List_baseIP15ConnectionPointSaIS1_EE7_M_initEv
                0x000000000002a900       0x21 ./BaseDevice.o
                0x000000000002a900                _ZNSt10_List_baseIP15ConnectionPointSaIS1_EE7_M_initEv
 *fill*         0x000000000002a921        0x1 90909090
 .text._ZNSt20_List_const_iteratorIP15ConnectionPointEC2EPKNSt8__detail15_List_node_baseE
                0x000000000002a922       0x19 ./BaseDevice.o
                0x000000000002a922                _ZNSt20_List_const_iteratorIP15ConnectionPointEC2EPKNSt8__detail15_List_node_baseE
                0x000000000002a922                _ZNSt20_List_const_iteratorIP15ConnectionPointEC1EPKNSt8__detail15_List_node_baseE
 *fill*         0x000000000002a93b        0x1 90909090
 .text._ZNKSt20_List_const_iteratorIP15ConnectionPointEneERKS2_
                0x000000000002a93c       0x22 ./BaseDevice.o
                0x000000000002a93c                _ZNKSt20_List_const_iteratorIP15ConnectionPointEneERKS2_
 .text._ZNSt20_List_const_iteratorIP15ConnectionPointEppEv
                0x000000000002a95e       0x1f ./BaseDevice.o
                0x000000000002a95e                _ZNSt20_List_const_iteratorIP15ConnectionPointEppEv
 *fill*         0x000000000002a97d        0x1 90909090
 .text._ZNSt4listIP15ConnectionPointSaIS1_EE9push_backERKS1_
                0x000000000002a97e       0x34 ./BaseDevice.o
                0x000000000002a97e                _ZNSt4listIP15ConnectionPointSaIS1_EE9push_backERKS1_
 .text._ZNKSt20_List_const_iteratorIP15ConnectionPointEdeEv
                0x000000000002a9b2       0x15 ./BaseDevice.o
                0x000000000002a9b2                _ZNKSt20_List_const_iteratorIP15ConnectionPointEdeEv
 *fill*         0x000000000002a9c7        0x1 90909090
 .text._ZNSt4listIP15DeviceParameterSaIS1_EE14_M_create_nodeERKS1_
                0x000000000002a9c8       0xb8 ./BaseDevice.o
                0x000000000002a9c8                _ZNSt4listIP15DeviceParameterSaIS1_EE14_M_create_nodeERKS1_
 .text._ZSt19__iterator_categoryISt20_List_const_iteratorIP15ConnectionPointEENSt15iterator_traitsIT_E17iterator_categoryERKS5_
                0x000000000002aa80        0xa ./BaseDevice.o
                0x000000000002aa80                _ZSt19__iterator_categoryISt20_List_const_iteratorIP15ConnectionPointEENSt15iterator_traitsIT_E17iterator_categoryERKS5_
 .text._ZSt10__distanceISt20_List_const_iteratorIP15ConnectionPointEENSt15iterator_traitsIT_E15difference_typeES5_S5_St18input_iterator_tag
                0x000000000002aa8a       0x48 ./BaseDevice.o
                0x000000000002aa8a                _ZSt10__distanceISt20_List_const_iteratorIP15ConnectionPointEENSt15iterator_traitsIT_E15difference_typeES5_S5_St18input_iterator_tag
 .text._ZNSt20_List_const_iteratorIP6PinoutEC2EPKNSt8__detail15_List_node_baseE
                0x000000000002aad2       0x19 ./BaseDevice.o
                0x000000000002aad2                _ZNSt20_List_const_iteratorIP6PinoutEC1EPKNSt8__detail15_List_node_baseE
                0x000000000002aad2                _ZNSt20_List_const_iteratorIP6PinoutEC2EPKNSt8__detail15_List_node_baseE
 .text._ZSt19__iterator_categoryISt20_List_const_iteratorIP6PinoutEENSt15iterator_traitsIT_E17iterator_categoryERKS5_
                0x000000000002aaeb        0xa ./BaseDevice.o
                0x000000000002aaeb                _ZSt19__iterator_categoryISt20_List_const_iteratorIP6PinoutEENSt15iterator_traitsIT_E17iterator_categoryERKS5_
 .text._ZSt10__distanceISt20_List_const_iteratorIP6PinoutEENSt15iterator_traitsIT_E15difference_typeES5_S5_St18input_iterator_tag
                0x000000000002aaf5       0x48 ./BaseDevice.o
                0x000000000002aaf5                _ZSt10__distanceISt20_List_const_iteratorIP6PinoutEENSt15iterator_traitsIT_E15difference_typeES5_S5_St18input_iterator_tag
 *fill*         0x000000000002ab3d        0x1 90909090
 .text._ZNSt20_List_const_iteratorIP15DeviceParameterEC2EPKNSt8__detail15_List_node_baseE
                0x000000000002ab3e       0x19 ./BaseDevice.o
                0x000000000002ab3e                _ZNSt20_List_const_iteratorIP15DeviceParameterEC2EPKNSt8__detail15_List_node_baseE
                0x000000000002ab3e                _ZNSt20_List_const_iteratorIP15DeviceParameterEC1EPKNSt8__detail15_List_node_baseE
 .text._ZSt19__iterator_categoryISt20_List_const_iteratorIP15DeviceParameterEENSt15iterator_traitsIT_E17iterator_categoryERKS5_
                0x000000000002ab57        0xa ./BaseDevice.o
                0x000000000002ab57                _ZSt19__iterator_categoryISt20_List_const_iteratorIP15DeviceParameterEENSt15iterator_traitsIT_E17iterator_categoryERKS5_
 .text._ZSt10__distanceISt20_List_const_iteratorIP15DeviceParameterEENSt15iterator_traitsIT_E15difference_typeES5_S5_St18input_iterator_tag
                0x000000000002ab61       0x48 ./BaseDevice.o
                0x000000000002ab61                _ZSt10__distanceISt20_List_const_iteratorIP15DeviceParameterEENSt15iterator_traitsIT_E15difference_typeES5_S5_St18input_iterator_tag
 *fill*         0x000000000002aba9        0x1 90909090
 .text._ZNSaISt10_List_nodeIP15DeviceParameterEEC2Ev
                0x000000000002abaa       0x1a ./BaseDevice.o
                0x000000000002abaa                _ZNSaISt10_List_nodeIP15DeviceParameterEEC1Ev
                0x000000000002abaa                _ZNSaISt10_List_nodeIP15DeviceParameterEEC2Ev
 .text._ZNSaISt10_List_nodeIP6PinoutEEC2Ev
                0x000000000002abc4       0x1a ./BaseDevice.o
                0x000000000002abc4                _ZNSaISt10_List_nodeIP6PinoutEEC1Ev
                0x000000000002abc4                _ZNSaISt10_List_nodeIP6PinoutEEC2Ev
 .text._ZN9__gnu_cxx13new_allocatorISt10_List_nodeIP15ConnectionPointEE10deallocateEPS4_m
                0x000000000002abde       0x22 ./BaseDevice.o
                0x000000000002abde                _ZN9__gnu_cxx13new_allocatorISt10_List_nodeIP15ConnectionPointEE10deallocateEPS4_m
 .text._ZNKSt10_List_baseIP6PinoutSaIS1_EE21_M_get_Node_allocatorEv
                0x000000000002ac00        0xe ./BaseDevice.o
                0x000000000002ac00                _ZNKSt10_List_baseIP6PinoutSaIS1_EE21_M_get_Node_allocatorEv
 .text._ZNSaIP6PinoutEC2ISt10_List_nodeIS0_EEERKSaIT_E
                0x000000000002ac0e       0x1e ./BaseDevice.o
                0x000000000002ac0e                _ZNSaIP6PinoutEC1ISt10_List_nodeIS0_EEERKSaIT_E
                0x000000000002ac0e                _ZNSaIP6PinoutEC2ISt10_List_nodeIS0_EEERKSaIT_E
 .text._ZN9__gnu_cxx13new_allocatorIP6PinoutED2Ev
                0x000000000002ac2c        0xa ./BaseDevice.o
                0x000000000002ac2c                _ZN9__gnu_cxx13new_allocatorIP6PinoutED2Ev
                0x000000000002ac2c                _ZN9__gnu_cxx13new_allocatorIP6PinoutED1Ev
 .text._ZN9__gnu_cxx13new_allocatorISt10_List_nodeIP6PinoutEE10deallocateEPS4_m
                0x000000000002ac36       0x22 ./BaseDevice.o
                0x000000000002ac36                _ZN9__gnu_cxx13new_allocatorISt10_List_nodeIP6PinoutEE10deallocateEPS4_m
 .text._ZNKSt10_List_baseIP15DeviceParameterSaIS1_EE21_M_get_Node_allocatorEv
                0x000000000002ac58        0xe ./BaseDevice.o
                0x000000000002ac58                _ZNKSt10_List_baseIP15DeviceParameterSaIS1_EE21_M_get_Node_allocatorEv
 .text._ZNSaIP15DeviceParameterEC2ISt10_List_nodeIS0_EEERKSaIT_E
                0x000000000002ac66       0x1e ./BaseDevice.o
                0x000000000002ac66                _ZNSaIP15DeviceParameterEC2ISt10_List_nodeIS0_EEERKSaIT_E
                0x000000000002ac66                _ZNSaIP15DeviceParameterEC1ISt10_List_nodeIS0_EEERKSaIT_E
 .text._ZN9__gnu_cxx13new_allocatorIP15DeviceParameterED2Ev
                0x000000000002ac84        0xa ./BaseDevice.o
                0x000000000002ac84                _ZN9__gnu_cxx13new_allocatorIP15DeviceParameterED2Ev
                0x000000000002ac84                _ZN9__gnu_cxx13new_allocatorIP15DeviceParameterED1Ev
 .text._ZN9__gnu_cxx13new_allocatorISt10_List_nodeIP15DeviceParameterEE10deallocateEPS4_m
                0x000000000002ac8e       0x22 ./BaseDevice.o
                0x000000000002ac8e                _ZN9__gnu_cxx13new_allocatorISt10_List_nodeIP15DeviceParameterEE10deallocateEPS4_m
 .text._ZN9__gnu_cxx13new_allocatorISt10_List_nodeIP15ConnectionPointEEC2Ev
                0x000000000002acb0        0xa ./BaseDevice.o
                0x000000000002acb0                _ZN9__gnu_cxx13new_allocatorISt10_List_nodeIP15ConnectionPointEEC1Ev
                0x000000000002acb0                _ZN9__gnu_cxx13new_allocatorISt10_List_nodeIP15ConnectionPointEEC2Ev
 .text._ZNSaISt10_List_nodeIP15ConnectionPointEEC2ERKS3_
                0x000000000002acba       0x25 ./BaseDevice.o
                0x000000000002acba                _ZNSaISt10_List_nodeIP15ConnectionPointEEC1ERKS3_
                0x000000000002acba                _ZNSaISt10_List_nodeIP15ConnectionPointEEC2ERKS3_
 *fill*         0x000000000002acdf        0x1 90909090
 .text._ZNSt4listIP15ConnectionPointSaIS1_EE9_M_insertESt14_List_iteratorIS1_ERKS1_
                0x000000000002ace0       0x40 ./BaseDevice.o
                0x000000000002ace0                _ZNSt4listIP15ConnectionPointSaIS1_EE9_M_insertESt14_List_iteratorIS1_ERKS1_
 .text._ZNSt10_List_baseIP15DeviceParameterSaIS1_EE11_M_get_nodeEv
                0x000000000002ad20       0x24 ./BaseDevice.o
                0x000000000002ad20                _ZNSt10_List_baseIP15DeviceParameterSaIS1_EE11_M_get_nodeEv
 .text._ZN9__gnu_cxx13new_allocatorIP15DeviceParameterE9constructEPS2_RKS2_
                0x000000000002ad44       0x36 ./BaseDevice.o
                0x000000000002ad44                _ZN9__gnu_cxx13new_allocatorIP15DeviceParameterE9constructEPS2_RKS2_
 .text._ZNKSt20_List_const_iteratorIP6PinoutEneERKS2_
                0x000000000002ad7a       0x22 ./BaseDevice.o
                0x000000000002ad7a                _ZNKSt20_List_const_iteratorIP6PinoutEneERKS2_
 .text._ZNSt20_List_const_iteratorIP6PinoutEppEv
                0x000000000002ad9c       0x1f ./BaseDevice.o
                0x000000000002ad9c                _ZNSt20_List_const_iteratorIP6PinoutEppEv
 *fill*         0x000000000002adbb        0x1 90909090
 .text._ZNKSt20_List_const_iteratorIP15DeviceParameterEneERKS2_
                0x000000000002adbc       0x22 ./BaseDevice.o
                0x000000000002adbc                _ZNKSt20_List_const_iteratorIP15DeviceParameterEneERKS2_
 .text._ZNSt20_List_const_iteratorIP15DeviceParameterEppEv
                0x000000000002adde       0x1f ./BaseDevice.o
                0x000000000002adde                _ZNSt20_List_const_iteratorIP15DeviceParameterEppEv
 *fill*         0x000000000002adfd        0x1 90909090
 .text._ZN9__gnu_cxx13new_allocatorISt10_List_nodeIP15DeviceParameterEEC2Ev
                0x000000000002adfe        0xa ./BaseDevice.o
                0x000000000002adfe                _ZN9__gnu_cxx13new_allocatorISt10_List_nodeIP15DeviceParameterEEC1Ev
                0x000000000002adfe                _ZN9__gnu_cxx13new_allocatorISt10_List_nodeIP15DeviceParameterEEC2Ev
 .text._ZN9__gnu_cxx13new_allocatorISt10_List_nodeIP6PinoutEEC2Ev
                0x000000000002ae08        0xa ./BaseDevice.o
                0x000000000002ae08                _ZN9__gnu_cxx13new_allocatorISt10_List_nodeIP6PinoutEEC2Ev
                0x000000000002ae08                _ZN9__gnu_cxx13new_allocatorISt10_List_nodeIP6PinoutEEC1Ev
 .text._ZN9__gnu_cxx13new_allocatorIP6PinoutEC2Ev
                0x000000000002ae12        0xa ./BaseDevice.o
                0x000000000002ae12                _ZN9__gnu_cxx13new_allocatorIP6PinoutEC1Ev
                0x000000000002ae12                _ZN9__gnu_cxx13new_allocatorIP6PinoutEC2Ev
 .text._ZN9__gnu_cxx13new_allocatorIP15DeviceParameterEC2Ev
                0x000000000002ae1c        0xa ./BaseDevice.o
                0x000000000002ae1c                _ZN9__gnu_cxx13new_allocatorIP15DeviceParameterEC1Ev
                0x000000000002ae1c                _ZN9__gnu_cxx13new_allocatorIP15DeviceParameterEC2Ev
 .text._ZN9__gnu_cxx13new_allocatorISt10_List_nodeIP15ConnectionPointEEC2ERKS5_
                0x000000000002ae26        0xe ./BaseDevice.o
                0x000000000002ae26                _ZN9__gnu_cxx13new_allocatorISt10_List_nodeIP15ConnectionPointEEC1ERKS5_
                0x000000000002ae26                _ZN9__gnu_cxx13new_allocatorISt10_List_nodeIP15ConnectionPointEEC2ERKS5_
 .text._ZNSt4listIP15ConnectionPointSaIS1_EE14_M_create_nodeERKS1_
                0x000000000002ae34       0xb8 ./BaseDevice.o
                0x000000000002ae34                _ZNSt4listIP15ConnectionPointSaIS1_EE14_M_create_nodeERKS1_
 .text._ZN9__gnu_cxx13new_allocatorISt10_List_nodeIP15DeviceParameterEE8allocateEmPKv
                0x000000000002aeec       0x4b ./BaseDevice.o
                0x000000000002aeec                _ZN9__gnu_cxx13new_allocatorISt10_List_nodeIP15DeviceParameterEE8allocateEmPKv
 *fill*         0x000000000002af37        0x1 90909090
 .text._ZNSt10_List_baseIP15ConnectionPointSaIS1_EE11_M_get_nodeEv
                0x000000000002af38       0x24 ./BaseDevice.o
                0x000000000002af38                _ZNSt10_List_baseIP15ConnectionPointSaIS1_EE11_M_get_nodeEv
 .text._ZN9__gnu_cxx13new_allocatorIP15ConnectionPointE9constructEPS2_RKS2_
                0x000000000002af5c       0x36 ./BaseDevice.o
                0x000000000002af5c                _ZN9__gnu_cxx13new_allocatorIP15ConnectionPointE9constructEPS2_RKS2_
 .text._ZNK9__gnu_cxx13new_allocatorISt10_List_nodeIP15DeviceParameterEE8max_sizeEv
                0x000000000002af92       0x14 ./BaseDevice.o
                0x000000000002af92                _ZNK9__gnu_cxx13new_allocatorISt10_List_nodeIP15DeviceParameterEE8max_sizeEv
 .text._ZN9__gnu_cxx13new_allocatorISt10_List_nodeIP15ConnectionPointEE8allocateEmPKv
                0x000000000002afa6       0x4b ./BaseDevice.o
                0x000000000002afa6                _ZN9__gnu_cxx13new_allocatorISt10_List_nodeIP15ConnectionPointEE8allocateEmPKv
 *fill*         0x000000000002aff1        0x1 90909090
 .text._ZNK9__gnu_cxx13new_allocatorISt10_List_nodeIP15ConnectionPointEE8max_sizeEv
                0x000000000002aff2       0x14 ./BaseDevice.o
                0x000000000002aff2                _ZNK9__gnu_cxx13new_allocatorISt10_List_nodeIP15ConnectionPointEE8max_sizeEv
 *fill*         0x000000000002b006        0x2 90909090
 .text          0x000000000002b008      0x9da ./BaseDriver.o
                0x000000000002b008                _ZN10BaseDriverC1Ev
                0x000000000002b008                _ZN10BaseDriverC2Ev
                0x000000000002b0e0                _ZN10BaseDriverD2Ev
                0x000000000002b0e0                _ZN10BaseDriverD1Ev
                0x000000000002b1c4                _ZN10BaseDriverD0Ev
                0x000000000002b1ea                _ZN10BaseDriver6ToJsonEv
 .text._ZN13DriverCommandC2Ev
                0x000000000002b9e2       0x1c ./BaseDriver.o
                0x000000000002b9e2                _ZN13DriverCommandC2Ev
                0x000000000002b9e2                _ZN13DriverCommandC1Ev
 .text._ZN13DriverCommandD2Ev
                0x000000000002b9fe       0x38 ./BaseDriver.o
                0x000000000002b9fe                _ZN13DriverCommandD1Ev
                0x000000000002b9fe                _ZN13DriverCommandD2Ev
 .text._ZN13DriverCommandD0Ev
                0x000000000002ba36       0x26 ./BaseDriver.o
                0x000000000002ba36                _ZN13DriverCommandD0Ev
 .text._ZNSt4listI7CommandSaIS0_EED2Ev
                0x000000000002ba5c       0x1a ./BaseDriver.o
                0x000000000002ba5c                _ZNSt4listI7CommandSaIS0_EED1Ev
                0x000000000002ba5c                _ZNSt4listI7CommandSaIS0_EED2Ev
 .text._ZNSt4listI5EventSaIS0_EED2Ev
                0x000000000002ba76       0x1a ./BaseDriver.o
                0x000000000002ba76                _ZNSt4listI5EventSaIS0_EED2Ev
                0x000000000002ba76                _ZNSt4listI5EventSaIS0_EED1Ev
 .text._ZNSt4listI7CommandSaIS0_EEC2Ev
                0x000000000002ba90       0x1a ./BaseDriver.o
                0x000000000002ba90                _ZNSt4listI7CommandSaIS0_EEC1Ev
                0x000000000002ba90                _ZNSt4listI7CommandSaIS0_EEC2Ev
 .text._ZNSt4listI5EventSaIS0_EEC2Ev
                0x000000000002baaa       0x1a ./BaseDriver.o
                0x000000000002baaa                _ZNSt4listI5EventSaIS0_EEC1Ev
                0x000000000002baaa                _ZNSt4listI5EventSaIS0_EEC2Ev
 .text._ZNSt10_List_baseI7CommandSaIS0_EE10_List_implD2Ev
                0x000000000002bac4       0x1a ./BaseDriver.o
                0x000000000002bac4                _ZNSt10_List_baseI7CommandSaIS0_EE10_List_implD1Ev
                0x000000000002bac4                _ZNSt10_List_baseI7CommandSaIS0_EE10_List_implD2Ev
 .text._ZNSt10_List_baseI7CommandSaIS0_EED2Ev
                0x000000000002bade       0x46 ./BaseDriver.o
                0x000000000002bade                _ZNSt10_List_baseI7CommandSaIS0_EED1Ev
                0x000000000002bade                _ZNSt10_List_baseI7CommandSaIS0_EED2Ev
 .text._ZNSt10_List_baseI5EventSaIS0_EE10_List_implD2Ev
                0x000000000002bb24       0x1a ./BaseDriver.o
                0x000000000002bb24                _ZNSt10_List_baseI5EventSaIS0_EE10_List_implD2Ev
                0x000000000002bb24                _ZNSt10_List_baseI5EventSaIS0_EE10_List_implD1Ev
 .text._ZNSt10_List_baseI5EventSaIS0_EED2Ev
                0x000000000002bb3e       0x46 ./BaseDriver.o
                0x000000000002bb3e                _ZNSt10_List_baseI5EventSaIS0_EED2Ev
                0x000000000002bb3e                _ZNSt10_List_baseI5EventSaIS0_EED1Ev
 .text._ZNKSt4listI7CommandSaIS0_EE4sizeEv
                0x000000000002bb84       0x3a ./BaseDriver.o
                0x000000000002bb84                _ZNKSt4listI7CommandSaIS0_EE4sizeEv
 .text._ZNSt14_List_iteratorI7CommandEC2Ev
                0x000000000002bbbe       0x15 ./BaseDriver.o
                0x000000000002bbbe                _ZNSt14_List_iteratorI7CommandEC2Ev
                0x000000000002bbbe                _ZNSt14_List_iteratorI7CommandEC1Ev
 *fill*         0x000000000002bbd3        0x1 90909090
 .text._ZNSt4listI7CommandSaIS0_EE5beginEv
                0x000000000002bbd4       0x28 ./BaseDriver.o
                0x000000000002bbd4                _ZNSt4listI7CommandSaIS0_EE5beginEv
 .text._ZNSt4listI7CommandSaIS0_EE3endEv
                0x000000000002bbfc       0x25 ./BaseDriver.o
                0x000000000002bbfc                _ZNSt4listI7CommandSaIS0_EE3endEv
 *fill*         0x000000000002bc21        0x1 90909090
 .text._ZNKSt14_List_iteratorI7CommandEneERKS1_
                0x000000000002bc22       0x22 ./BaseDriver.o
                0x000000000002bc22                _ZNKSt14_List_iteratorI7CommandEneERKS1_
 .text._ZNSt14_List_iteratorI7CommandEppEi
                0x000000000002bc44       0x2d ./BaseDriver.o
                0x000000000002bc44                _ZNSt14_List_iteratorI7CommandEppEi
 *fill*         0x000000000002bc71        0x1 90909090
 .text._ZNKSt14_List_iteratorI7CommandEdeEv
                0x000000000002bc72       0x15 ./BaseDriver.o
                0x000000000002bc72                _ZNKSt14_List_iteratorI7CommandEdeEv
 *fill*         0x000000000002bc87        0x1 90909090
 .text._ZNKSt4listI5EventSaIS0_EE4sizeEv
                0x000000000002bc88       0x3a ./BaseDriver.o
                0x000000000002bc88                _ZNKSt4listI5EventSaIS0_EE4sizeEv
 .text._ZNSt14_List_iteratorI5EventEC2Ev
                0x000000000002bcc2       0x15 ./BaseDriver.o
                0x000000000002bcc2                _ZNSt14_List_iteratorI5EventEC2Ev
                0x000000000002bcc2                _ZNSt14_List_iteratorI5EventEC1Ev
 *fill*         0x000000000002bcd7        0x1 90909090
 .text._ZNSt4listI5EventSaIS0_EE5beginEv
                0x000000000002bcd8       0x28 ./BaseDriver.o
                0x000000000002bcd8                _ZNSt4listI5EventSaIS0_EE5beginEv
 .text._ZNSt4listI5EventSaIS0_EE3endEv
                0x000000000002bd00       0x25 ./BaseDriver.o
                0x000000000002bd00                _ZNSt4listI5EventSaIS0_EE3endEv
 *fill*         0x000000000002bd25        0x1 90909090
 .text._ZNKSt14_List_iteratorI5EventEneERKS1_
                0x000000000002bd26       0x22 ./BaseDriver.o
                0x000000000002bd26                _ZNKSt14_List_iteratorI5EventEneERKS1_
 .text._ZNSt14_List_iteratorI5EventEppEi
                0x000000000002bd48       0x2d ./BaseDriver.o
                0x000000000002bd48                _ZNSt14_List_iteratorI5EventEppEi
 *fill*         0x000000000002bd75        0x1 90909090
 .text._ZNKSt14_List_iteratorI5EventEdeEv
                0x000000000002bd76       0x15 ./BaseDriver.o
                0x000000000002bd76                _ZNKSt14_List_iteratorI5EventEdeEv
 *fill*         0x000000000002bd8b        0x1 90909090
 .text._ZNSt10_List_baseI7CommandSaIS0_EEC2Ev
                0x000000000002bd8c       0x48 ./BaseDriver.o
                0x000000000002bd8c                _ZNSt10_List_baseI7CommandSaIS0_EEC2Ev
                0x000000000002bd8c                _ZNSt10_List_baseI7CommandSaIS0_EEC1Ev
 .text._ZNSt10_List_baseI5EventSaIS0_EEC2Ev
                0x000000000002bdd4       0x48 ./BaseDriver.o
                0x000000000002bdd4                _ZNSt10_List_baseI5EventSaIS0_EEC1Ev
                0x000000000002bdd4                _ZNSt10_List_baseI5EventSaIS0_EEC2Ev
 .text._ZNSaISt10_List_nodeI7CommandEED2Ev
                0x000000000002be1c       0x1a ./BaseDriver.o
                0x000000000002be1c                _ZNSaISt10_List_nodeI7CommandEED2Ev
                0x000000000002be1c                _ZNSaISt10_List_nodeI7CommandEED1Ev
 .text._ZNSt10_List_baseI7CommandSaIS0_EE8_M_clearEv
                0x000000000002be36       0xb3 ./BaseDriver.o
                0x000000000002be36                _ZNSt10_List_baseI7CommandSaIS0_EE8_M_clearEv
 *fill*         0x000000000002bee9        0x1 90909090
 .text._ZNSaISt10_List_nodeI5EventEED2Ev
                0x000000000002beea       0x1a ./BaseDriver.o
                0x000000000002beea                _ZNSaISt10_List_nodeI5EventEED2Ev
                0x000000000002beea                _ZNSaISt10_List_nodeI5EventEED1Ev
 .text._ZNSt10_List_baseI5EventSaIS0_EE8_M_clearEv
                0x000000000002bf04       0xb3 ./BaseDriver.o
                0x000000000002bf04                _ZNSt10_List_baseI5EventSaIS0_EE8_M_clearEv
 *fill*         0x000000000002bfb7        0x1 90909090
 .text._ZNKSt4listI7CommandSaIS0_EE5beginEv
                0x000000000002bfb8       0x28 ./BaseDriver.o
                0x000000000002bfb8                _ZNKSt4listI7CommandSaIS0_EE5beginEv
 .text._ZNKSt4listI7CommandSaIS0_EE3endEv
                0x000000000002bfe0       0x25 ./BaseDriver.o
                0x000000000002bfe0                _ZNKSt4listI7CommandSaIS0_EE3endEv
 .text._ZSt8distanceISt20_List_const_iteratorI7CommandEENSt15iterator_traitsIT_E15difference_typeES4_S4_
                0x000000000002c005       0x3a ./BaseDriver.o
                0x000000000002c005                _ZSt8distanceISt20_List_const_iteratorI7CommandEENSt15iterator_traitsIT_E15difference_typeES4_S4_
 *fill*         0x000000000002c03f        0x1 90909090
 .text._ZNSt14_List_iteratorI7CommandEC2EPNSt8__detail15_List_node_baseE
                0x000000000002c040       0x19 ./BaseDriver.o
                0x000000000002c040                _ZNSt14_List_iteratorI7CommandEC2EPNSt8__detail15_List_node_baseE
                0x000000000002c040                _ZNSt14_List_iteratorI7CommandEC1EPNSt8__detail15_List_node_baseE
 *fill*         0x000000000002c059        0x1 90909090
 .text._ZNKSt4listI5EventSaIS0_EE5beginEv
                0x000000000002c05a       0x28 ./BaseDriver.o
                0x000000000002c05a                _ZNKSt4listI5EventSaIS0_EE5beginEv
 .text._ZNKSt4listI5EventSaIS0_EE3endEv
                0x000000000002c082       0x25 ./BaseDriver.o
                0x000000000002c082                _ZNKSt4listI5EventSaIS0_EE3endEv
 .text._ZSt8distanceISt20_List_const_iteratorI5EventEENSt15iterator_traitsIT_E15difference_typeES4_S4_
                0x000000000002c0a7       0x3a ./BaseDriver.o
                0x000000000002c0a7                _ZSt8distanceISt20_List_const_iteratorI5EventEENSt15iterator_traitsIT_E15difference_typeES4_S4_
 *fill*         0x000000000002c0e1        0x1 90909090
 .text._ZNSt14_List_iteratorI5EventEC2EPNSt8__detail15_List_node_baseE
                0x000000000002c0e2       0x19 ./BaseDriver.o
                0x000000000002c0e2                _ZNSt14_List_iteratorI5EventEC2EPNSt8__detail15_List_node_baseE
                0x000000000002c0e2                _ZNSt14_List_iteratorI5EventEC1EPNSt8__detail15_List_node_baseE
 *fill*         0x000000000002c0fb        0x1 90909090
 .text._ZNSt10_List_baseI7CommandSaIS0_EE10_List_implC2Ev
                0x000000000002c0fc       0x31 ./BaseDriver.o
                0x000000000002c0fc                _ZNSt10_List_baseI7CommandSaIS0_EE10_List_implC2Ev
                0x000000000002c0fc                _ZNSt10_List_baseI7CommandSaIS0_EE10_List_implC1Ev
 *fill*         0x000000000002c12d        0x1 90909090
 .text._ZNSt10_List_baseI7CommandSaIS0_EE7_M_initEv
                0x000000000002c12e       0x21 ./BaseDriver.o
                0x000000000002c12e                _ZNSt10_List_baseI7CommandSaIS0_EE7_M_initEv
 *fill*         0x000000000002c14f        0x1 90909090
 .text._ZNSt10_List_baseI5EventSaIS0_EE10_List_implC2Ev
                0x000000000002c150       0x31 ./BaseDriver.o
                0x000000000002c150                _ZNSt10_List_baseI5EventSaIS0_EE10_List_implC1Ev
                0x000000000002c150                _ZNSt10_List_baseI5EventSaIS0_EE10_List_implC2Ev
 *fill*         0x000000000002c181        0x1 90909090
 .text._ZNSt10_List_baseI5EventSaIS0_EE7_M_initEv
                0x000000000002c182       0x21 ./BaseDriver.o
                0x000000000002c182                _ZNSt10_List_baseI5EventSaIS0_EE7_M_initEv
 *fill*         0x000000000002c1a3        0x1 90909090
 .text._ZN9__gnu_cxx13new_allocatorISt10_List_nodeI7CommandEED2Ev
                0x000000000002c1a4        0xa ./BaseDriver.o
                0x000000000002c1a4                _ZN9__gnu_cxx13new_allocatorISt10_List_nodeI7CommandEED2Ev
                0x000000000002c1a4                _ZN9__gnu_cxx13new_allocatorISt10_List_nodeI7CommandEED1Ev
 .text._ZNKSt10_List_baseI7CommandSaIS0_EE19_M_get_Tp_allocatorEv
                0x000000000002c1ae       0x34 ./BaseDriver.o
                0x000000000002c1ae                _ZNKSt10_List_baseI7CommandSaIS0_EE19_M_get_Tp_allocatorEv
 .text._ZNSaI7CommandED2Ev
                0x000000000002c1e2       0x1a ./BaseDriver.o
                0x000000000002c1e2                _ZNSaI7CommandED1Ev
                0x000000000002c1e2                _ZNSaI7CommandED2Ev
 .text._ZSt11__addressofI7CommandEPT_RS1_
                0x000000000002c1fc        0xe ./BaseDriver.o
                0x000000000002c1fc                _ZSt11__addressofI7CommandEPT_RS1_
 .text._ZN9__gnu_cxx13new_allocatorI7CommandE7destroyEPS1_
                0x000000000002c20a       0x25 ./BaseDriver.o
                0x000000000002c20a                _ZN9__gnu_cxx13new_allocatorI7CommandE7destroyEPS1_
 *fill*         0x000000000002c22f        0x1 90909090
 .text._ZNSt10_List_baseI7CommandSaIS0_EE11_M_put_nodeEPSt10_List_nodeIS0_E
                0x000000000002c230       0x2a ./BaseDriver.o
                0x000000000002c230                _ZNSt10_List_baseI7CommandSaIS0_EE11_M_put_nodeEPSt10_List_nodeIS0_E
 .text._ZN9__gnu_cxx13new_allocatorISt10_List_nodeI5EventEED2Ev
                0x000000000002c25a        0xa ./BaseDriver.o
                0x000000000002c25a                _ZN9__gnu_cxx13new_allocatorISt10_List_nodeI5EventEED1Ev
                0x000000000002c25a                _ZN9__gnu_cxx13new_allocatorISt10_List_nodeI5EventEED2Ev
 .text._ZNKSt10_List_baseI5EventSaIS0_EE19_M_get_Tp_allocatorEv
                0x000000000002c264       0x34 ./BaseDriver.o
                0x000000000002c264                _ZNKSt10_List_baseI5EventSaIS0_EE19_M_get_Tp_allocatorEv
 .text._ZNSaI5EventED2Ev
                0x000000000002c298       0x1a ./BaseDriver.o
                0x000000000002c298                _ZNSaI5EventED1Ev
                0x000000000002c298                _ZNSaI5EventED2Ev
 .text._ZSt11__addressofI5EventEPT_RS1_
                0x000000000002c2b2        0xe ./BaseDriver.o
                0x000000000002c2b2                _ZSt11__addressofI5EventEPT_RS1_
 .text._ZN9__gnu_cxx13new_allocatorI5EventE7destroyEPS1_
                0x000000000002c2c0       0x25 ./BaseDriver.o
                0x000000000002c2c0                _ZN9__gnu_cxx13new_allocatorI5EventE7destroyEPS1_
 *fill*         0x000000000002c2e5        0x1 90909090
 .text._ZNSt10_List_baseI5EventSaIS0_EE11_M_put_nodeEPSt10_List_nodeIS0_E
                0x000000000002c2e6       0x2a ./BaseDriver.o
                0x000000000002c2e6                _ZNSt10_List_baseI5EventSaIS0_EE11_M_put_nodeEPSt10_List_nodeIS0_E
 .text._ZNSt20_List_const_iteratorI7CommandEC2EPKNSt8__detail15_List_node_baseE
                0x000000000002c310       0x19 ./BaseDriver.o
                0x000000000002c310                _ZNSt20_List_const_iteratorI7CommandEC2EPKNSt8__detail15_List_node_baseE
                0x000000000002c310                _ZNSt20_List_const_iteratorI7CommandEC1EPKNSt8__detail15_List_node_baseE
 .text._ZSt19__iterator_categoryISt20_List_const_iteratorI7CommandEENSt15iterator_traitsIT_E17iterator_categoryERKS4_
                0x000000000002c329        0xa ./BaseDriver.o
                0x000000000002c329                _ZSt19__iterator_categoryISt20_List_const_iteratorI7CommandEENSt15iterator_traitsIT_E17iterator_categoryERKS4_
 .text._ZSt10__distanceISt20_List_const_iteratorI7CommandEENSt15iterator_traitsIT_E15difference_typeES4_S4_St18input_iterator_tag
                0x000000000002c333       0x48 ./BaseDriver.o
                0x000000000002c333                _ZSt10__distanceISt20_List_const_iteratorI7CommandEENSt15iterator_traitsIT_E15difference_typeES4_S4_St18input_iterator_tag
 *fill*         0x000000000002c37b        0x1 90909090
 .text._ZNSt20_List_const_iteratorI5EventEC2EPKNSt8__detail15_List_node_baseE
                0x000000000002c37c       0x19 ./BaseDriver.o
                0x000000000002c37c                _ZNSt20_List_const_iteratorI5EventEC1EPKNSt8__detail15_List_node_baseE
                0x000000000002c37c                _ZNSt20_List_const_iteratorI5EventEC2EPKNSt8__detail15_List_node_baseE
 .text._ZSt19__iterator_categoryISt20_List_const_iteratorI5EventEENSt15iterator_traitsIT_E17iterator_categoryERKS4_
                0x000000000002c395        0xa ./BaseDriver.o
                0x000000000002c395                _ZSt19__iterator_categoryISt20_List_const_iteratorI5EventEENSt15iterator_traitsIT_E17iterator_categoryERKS4_
 .text._ZSt10__distanceISt20_List_const_iteratorI5EventEENSt15iterator_traitsIT_E15difference_typeES4_S4_St18input_iterator_tag
                0x000000000002c39f       0x48 ./BaseDriver.o
                0x000000000002c39f                _ZSt10__distanceISt20_List_const_iteratorI5EventEENSt15iterator_traitsIT_E15difference_typeES4_S4_St18input_iterator_tag
 *fill*         0x000000000002c3e7        0x1 90909090
 .text._ZNSaISt10_List_nodeI7CommandEEC2Ev
                0x000000000002c3e8       0x1a ./BaseDriver.o
                0x000000000002c3e8                _ZNSaISt10_List_nodeI7CommandEEC2Ev
                0x000000000002c3e8                _ZNSaISt10_List_nodeI7CommandEEC1Ev
 .text._ZNSaISt10_List_nodeI5EventEEC2Ev
                0x000000000002c402       0x1a ./BaseDriver.o
                0x000000000002c402                _ZNSaISt10_List_nodeI5EventEEC2Ev
                0x000000000002c402                _ZNSaISt10_List_nodeI5EventEEC1Ev
 .text._ZNKSt10_List_baseI7CommandSaIS0_EE21_M_get_Node_allocatorEv
                0x000000000002c41c        0xe ./BaseDriver.o
                0x000000000002c41c                _ZNKSt10_List_baseI7CommandSaIS0_EE21_M_get_Node_allocatorEv
 .text._ZNSaI7CommandEC2ISt10_List_nodeIS_EEERKSaIT_E
                0x000000000002c42a       0x1e ./BaseDriver.o
                0x000000000002c42a                _ZNSaI7CommandEC2ISt10_List_nodeIS_EEERKSaIT_E
                0x000000000002c42a                _ZNSaI7CommandEC1ISt10_List_nodeIS_EEERKSaIT_E
 .text._ZN9__gnu_cxx13new_allocatorI7CommandED2Ev
                0x000000000002c448        0xa ./BaseDriver.o
                0x000000000002c448                _ZN9__gnu_cxx13new_allocatorI7CommandED1Ev
                0x000000000002c448                _ZN9__gnu_cxx13new_allocatorI7CommandED2Ev
 .text._ZN9__gnu_cxx13new_allocatorISt10_List_nodeI7CommandEE10deallocateEPS3_m
                0x000000000002c452       0x22 ./BaseDriver.o
                0x000000000002c452                _ZN9__gnu_cxx13new_allocatorISt10_List_nodeI7CommandEE10deallocateEPS3_m
 .text._ZNKSt10_List_baseI5EventSaIS0_EE21_M_get_Node_allocatorEv
                0x000000000002c474        0xe ./BaseDriver.o
                0x000000000002c474                _ZNKSt10_List_baseI5EventSaIS0_EE21_M_get_Node_allocatorEv
 .text._ZNSaI5EventEC2ISt10_List_nodeIS_EEERKSaIT_E
                0x000000000002c482       0x1e ./BaseDriver.o
                0x000000000002c482                _ZNSaI5EventEC1ISt10_List_nodeIS_EEERKSaIT_E
                0x000000000002c482                _ZNSaI5EventEC2ISt10_List_nodeIS_EEERKSaIT_E
 .text._ZN9__gnu_cxx13new_allocatorI5EventED2Ev
                0x000000000002c4a0        0xa ./BaseDriver.o
                0x000000000002c4a0                _ZN9__gnu_cxx13new_allocatorI5EventED1Ev
                0x000000000002c4a0                _ZN9__gnu_cxx13new_allocatorI5EventED2Ev
 .text._ZN9__gnu_cxx13new_allocatorISt10_List_nodeI5EventEE10deallocateEPS3_m
                0x000000000002c4aa       0x22 ./BaseDriver.o
                0x000000000002c4aa                _ZN9__gnu_cxx13new_allocatorISt10_List_nodeI5EventEE10deallocateEPS3_m
 .text._ZNKSt20_List_const_iteratorI7CommandEneERKS1_
                0x000000000002c4cc       0x22 ./BaseDriver.o
                0x000000000002c4cc                _ZNKSt20_List_const_iteratorI7CommandEneERKS1_
 .text._ZNSt20_List_const_iteratorI7CommandEppEv
                0x000000000002c4ee       0x1f ./BaseDriver.o
                0x000000000002c4ee                _ZNSt20_List_const_iteratorI7CommandEppEv
 *fill*         0x000000000002c50d        0x1 90909090
 .text._ZNKSt20_List_const_iteratorI5EventEneERKS1_
                0x000000000002c50e       0x22 ./BaseDriver.o
                0x000000000002c50e                _ZNKSt20_List_const_iteratorI5EventEneERKS1_
 .text._ZNSt20_List_const_iteratorI5EventEppEv
                0x000000000002c530       0x1f ./BaseDriver.o
                0x000000000002c530                _ZNSt20_List_const_iteratorI5EventEppEv
 *fill*         0x000000000002c54f        0x1 90909090
 .text._ZN9__gnu_cxx13new_allocatorISt10_List_nodeI7CommandEEC2Ev
                0x000000000002c550        0xa ./BaseDriver.o
                0x000000000002c550                _ZN9__gnu_cxx13new_allocatorISt10_List_nodeI7CommandEEC1Ev
                0x000000000002c550                _ZN9__gnu_cxx13new_allocatorISt10_List_nodeI7CommandEEC2Ev
 .text._ZN9__gnu_cxx13new_allocatorISt10_List_nodeI5EventEEC2Ev
                0x000000000002c55a        0xa ./BaseDriver.o
                0x000000000002c55a                _ZN9__gnu_cxx13new_allocatorISt10_List_nodeI5EventEEC1Ev
                0x000000000002c55a                _ZN9__gnu_cxx13new_allocatorISt10_List_nodeI5EventEEC2Ev
 .text._ZN9__gnu_cxx13new_allocatorI7CommandEC2Ev
                0x000000000002c564        0xa ./BaseDriver.o
                0x000000000002c564                _ZN9__gnu_cxx13new_allocatorI7CommandEC2Ev
                0x000000000002c564                _ZN9__gnu_cxx13new_allocatorI7CommandEC1Ev
 .text._ZN9__gnu_cxx13new_allocatorI5EventEC2Ev
                0x000000000002c56e        0xa ./BaseDriver.o
                0x000000000002c56e                _ZN9__gnu_cxx13new_allocatorI5EventEC2Ev
                0x000000000002c56e                _ZN9__gnu_cxx13new_allocatorI5EventEC1Ev
 .text          0x000000000002c578      0xa69 ./Command.o
                0x000000000002c578                _ZN7CommandC1Ev
                0x000000000002c578                _ZN7CommandC2Ev
                0x000000000002c614                _ZN7CommandC2ESs
                0x000000000002c614                _ZN7CommandC1ESs
                0x000000000002c6b4                _ZN7CommandD2Ev
                0x000000000002c6b4                _ZN7CommandD1Ev
                0x000000000002c780                _ZN7CommandD0Ev
                0x000000000002c7a6                _ZN7CommandC1ESsPSt4listIP16CommandParameterSaIS2_EE
                0x000000000002c7a6                _ZN7CommandC2ESsPSt4listIP16CommandParameterSaIS2_EE
                0x000000000002c826                _ZN7Command12GetParameterESs
                0x000000000002c900                _ZN7Command4NameEv
                0x000000000002c92e                _ZN7Command10ParametersEv
                0x000000000002c940                _ZN7Command12AddParameterEP16CommandParameter
                0x000000000002c96a                _ZN7Command5CloneEv
                0x000000000002ca7a                _ZN7Command6ToJsonEv
 .text._ZNSt11char_traitsIcE7compareEPKcS2_m
                0x000000000002cfe1       0x2d ./Command.o
                0x000000000002cfe1                _ZNSt11char_traitsIcE7compareEPKcS2_m
 .text._ZN16CommandParameterC2ESsPvSs
                0x000000000002d00e       0xa3 ./Command.o
                0x000000000002d00e                _ZN16CommandParameterC2ESsPvSs
                0x000000000002d00e                _ZN16CommandParameterC1ESsPvSs
 *fill*         0x000000000002d0b1        0x1 90909090
 .text._ZN16CommandParameter5CloneEv
                0x000000000002d0b2      0x195 ./Command.o
                0x000000000002d0b2                _ZN16CommandParameter5CloneEv
 *fill*         0x000000000002d247        0x1 90909090
 .text._ZN16CommandParameter6ToJsonEv
                0x000000000002d248      0x57f ./Command.o
                0x000000000002d248                _ZN16CommandParameter6ToJsonEv
 *fill*         0x000000000002d7c7        0x1 90909090
 .text._ZNSt4listIP16CommandParameterSaIS1_EED2Ev
                0x000000000002d7c8       0x1a ./Command.o
                0x000000000002d7c8                _ZNSt4listIP16CommandParameterSaIS1_EED1Ev
                0x000000000002d7c8                _ZNSt4listIP16CommandParameterSaIS1_EED2Ev
 .text._ZSteqIcSt11char_traitsIcESaIcEEbRKSbIT_T0_T1_EPKS3_
                0x000000000002d7e2       0x2a ./Command.o
                0x000000000002d7e2                _ZSteqIcSt11char_traitsIcESaIcEEbRKSbIT_T0_T1_EPKS3_
 .text._ZNSt4listIP16CommandParameterSaIS1_EEC2Ev
                0x000000000002d80c       0x1a ./Command.o
                0x000000000002d80c                _ZNSt4listIP16CommandParameterSaIS1_EEC2Ev
                0x000000000002d80c                _ZNSt4listIP16CommandParameterSaIS1_EEC1Ev
 .text._ZNSt14_List_iteratorIP16CommandParameterEC2Ev
                0x000000000002d826       0x15 ./Command.o
                0x000000000002d826                _ZNSt14_List_iteratorIP16CommandParameterEC1Ev
                0x000000000002d826                _ZNSt14_List_iteratorIP16CommandParameterEC2Ev
 *fill*         0x000000000002d83b        0x1 90909090
 .text._ZNSt4listIP16CommandParameterSaIS1_EE5beginEv
                0x000000000002d83c       0x28 ./Command.o
                0x000000000002d83c                _ZNSt4listIP16CommandParameterSaIS1_EE5beginEv
 .text._ZNSt4listIP16CommandParameterSaIS1_EE3endEv
                0x000000000002d864       0x25 ./Command.o
                0x000000000002d864                _ZNSt4listIP16CommandParameterSaIS1_EE3endEv
 *fill*         0x000000000002d889        0x1 90909090
 .text._ZNKSt14_List_iteratorIP16CommandParameterEneERKS2_
                0x000000000002d88a       0x22 ./Command.o
                0x000000000002d88a                _ZNKSt14_List_iteratorIP16CommandParameterEneERKS2_
 .text._ZNSt14_List_iteratorIP16CommandParameterEppEi
                0x000000000002d8ac       0x2d ./Command.o
                0x000000000002d8ac                _ZNSt14_List_iteratorIP16CommandParameterEppEi
 *fill*         0x000000000002d8d9        0x1 90909090
 .text._ZNKSt14_List_iteratorIP16CommandParameterEdeEv
                0x000000000002d8da       0x15 ./Command.o
                0x000000000002d8da                _ZNKSt14_List_iteratorIP16CommandParameterEdeEv
 *fill*         0x000000000002d8ef        0x1 90909090
 .text._ZNSt4listIP16CommandParameterSaIS1_EE9push_backERKS1_
                0x000000000002d8f0       0x34 ./Command.o
                0x000000000002d8f0                _ZNSt4listIP16CommandParameterSaIS1_EE9push_backERKS1_
 .text._ZNKSt4listIP16CommandParameterSaIS1_EE5emptyEv
                0x000000000002d924       0x1b ./Command.o
                0x000000000002d924                _ZNKSt4listIP16CommandParameterSaIS1_EE5emptyEv
 *fill*         0x000000000002d93f        0x1 90909090
 .text._ZNSt4listIP16CommandParameterSaIS1_EE5clearEv
                0x000000000002d940       0x26 ./Command.o
                0x000000000002d940                _ZNSt4listIP16CommandParameterSaIS1_EE5clearEv
 .text._ZNSt10_List_baseIP16CommandParameterSaIS1_EE10_List_implD2Ev
                0x000000000002d966       0x1a ./Command.o
                0x000000000002d966                _ZNSt10_List_baseIP16CommandParameterSaIS1_EE10_List_implD1Ev
                0x000000000002d966                _ZNSt10_List_baseIP16CommandParameterSaIS1_EE10_List_implD2Ev
 .text._ZNSt10_List_baseIP16CommandParameterSaIS1_EED2Ev
                0x000000000002d980       0x46 ./Command.o
                0x000000000002d980                _ZNSt10_List_baseIP16CommandParameterSaIS1_EED1Ev
                0x000000000002d980                _ZNSt10_List_baseIP16CommandParameterSaIS1_EED2Ev
 .text._ZSteqIcEN9__gnu_cxx11__enable_ifIXsrSt9__is_charIT_E7__valueEbE6__typeERKSbIS3_St11char_traitsIS3_ESaIS3_EESC_
                0x000000000002d9c6       0x84 ./Command.o
                0x000000000002d9c6                _ZSteqIcEN9__gnu_cxx11__enable_ifIXsrSt9__is_charIT_E7__valueEbE6__typeERKSbIS3_St11char_traitsIS3_ESaIS3_EESC_
 .text._ZNKSt4listIP16CommandParameterSaIS1_EE4sizeEv
                0x000000000002da4a       0x3a ./Command.o
                0x000000000002da4a                _ZNKSt4listIP16CommandParameterSaIS1_EE4sizeEv
 .text._ZNSt10_List_baseIP16CommandParameterSaIS1_EEC2Ev
                0x000000000002da84       0x48 ./Command.o
                0x000000000002da84                _ZNSt10_List_baseIP16CommandParameterSaIS1_EEC2Ev
                0x000000000002da84                _ZNSt10_List_baseIP16CommandParameterSaIS1_EEC1Ev
 .text._ZNSt14_List_iteratorIP16CommandParameterEC2EPNSt8__detail15_List_node_baseE
                0x000000000002dacc       0x19 ./Command.o
                0x000000000002dacc                _ZNSt14_List_iteratorIP16CommandParameterEC2EPNSt8__detail15_List_node_baseE
                0x000000000002dacc                _ZNSt14_List_iteratorIP16CommandParameterEC1EPNSt8__detail15_List_node_baseE
 *fill*         0x000000000002dae5        0x1 90909090
 .text._ZNSt4listIP16CommandParameterSaIS1_EE9_M_insertESt14_List_iteratorIS1_ERKS1_
                0x000000000002dae6       0x40 ./Command.o
                0x000000000002dae6                _ZNSt4listIP16CommandParameterSaIS1_EE9_M_insertESt14_List_iteratorIS1_ERKS1_
 .text._ZNSt10_List_baseIP16CommandParameterSaIS1_EE8_M_clearEv
                0x000000000002db26       0xb3 ./Command.o
                0x000000000002db26                _ZNSt10_List_baseIP16CommandParameterSaIS1_EE8_M_clearEv
 *fill*         0x000000000002dbd9        0x1 90909090
 .text._ZNSt10_List_baseIP16CommandParameterSaIS1_EE7_M_initEv
                0x000000000002dbda       0x21 ./Command.o
                0x000000000002dbda                _ZNSt10_List_baseIP16CommandParameterSaIS1_EE7_M_initEv
 *fill*         0x000000000002dbfb        0x1 90909090
 .text._ZNSaISt10_List_nodeIP16CommandParameterEED2Ev
                0x000000000002dbfc       0x1a ./Command.o
                0x000000000002dbfc                _ZNSaISt10_List_nodeIP16CommandParameterEED1Ev
                0x000000000002dbfc                _ZNSaISt10_List_nodeIP16CommandParameterEED2Ev
 .text._ZNKSt4listIP16CommandParameterSaIS1_EE5beginEv
                0x000000000002dc16       0x28 ./Command.o
                0x000000000002dc16                _ZNKSt4listIP16CommandParameterSaIS1_EE5beginEv
 .text._ZNKSt4listIP16CommandParameterSaIS1_EE3endEv
                0x000000000002dc3e       0x25 ./Command.o
                0x000000000002dc3e                _ZNKSt4listIP16CommandParameterSaIS1_EE3endEv
 .text._ZSt8distanceISt20_List_const_iteratorIP16CommandParameterEENSt15iterator_traitsIT_E15difference_typeES5_S5_
                0x000000000002dc63       0x3a ./Command.o
                0x000000000002dc63                _ZSt8distanceISt20_List_const_iteratorIP16CommandParameterEENSt15iterator_traitsIT_E15difference_typeES5_S5_
 *fill*         0x000000000002dc9d        0x1 90909090
 .text._ZNSt10_List_baseIP16CommandParameterSaIS1_EE10_List_implC2Ev
                0x000000000002dc9e       0x31 ./Command.o
                0x000000000002dc9e                _ZNSt10_List_baseIP16CommandParameterSaIS1_EE10_List_implC2Ev
                0x000000000002dc9e                _ZNSt10_List_baseIP16CommandParameterSaIS1_EE10_List_implC1Ev
 *fill*         0x000000000002dccf        0x1 90909090
 .text._ZNSt4listIP16CommandParameterSaIS1_EE14_M_create_nodeERKS1_
                0x000000000002dcd0       0xb8 ./Command.o
                0x000000000002dcd0                _ZNSt4listIP16CommandParameterSaIS1_EE14_M_create_nodeERKS1_
 .text._ZNKSt10_List_baseIP16CommandParameterSaIS1_EE19_M_get_Tp_allocatorEv
                0x000000000002dd88       0x34 ./Command.o
                0x000000000002dd88                _ZNKSt10_List_baseIP16CommandParameterSaIS1_EE19_M_get_Tp_allocatorEv
 .text._ZNSaIP16CommandParameterED2Ev
                0x000000000002ddbc       0x1a ./Command.o
                0x000000000002ddbc                _ZNSaIP16CommandParameterED1Ev
                0x000000000002ddbc                _ZNSaIP16CommandParameterED2Ev
 .text._ZSt11__addressofIP16CommandParameterEPT_RS2_
                0x000000000002ddd6        0xe ./Command.o
                0x000000000002ddd6                _ZSt11__addressofIP16CommandParameterEPT_RS2_
 .text._ZN9__gnu_cxx13new_allocatorIP16CommandParameterE7destroyEPS2_
                0x000000000002dde4        0xe ./Command.o
                0x000000000002dde4                _ZN9__gnu_cxx13new_allocatorIP16CommandParameterE7destroyEPS2_
 .text._ZNSt10_List_baseIP16CommandParameterSaIS1_EE11_M_put_nodeEPSt10_List_nodeIS1_E
                0x000000000002ddf2       0x2a ./Command.o
                0x000000000002ddf2                _ZNSt10_List_baseIP16CommandParameterSaIS1_EE11_M_put_nodeEPSt10_List_nodeIS1_E
 .text._ZN9__gnu_cxx13new_allocatorISt10_List_nodeIP16CommandParameterEED2Ev
                0x000000000002de1c        0xa ./Command.o
                0x000000000002de1c                _ZN9__gnu_cxx13new_allocatorISt10_List_nodeIP16CommandParameterEED1Ev
                0x000000000002de1c                _ZN9__gnu_cxx13new_allocatorISt10_List_nodeIP16CommandParameterEED2Ev
 .text._ZNSt20_List_const_iteratorIP16CommandParameterEC2EPKNSt8__detail15_List_node_baseE
                0x000000000002de26       0x19 ./Command.o
                0x000000000002de26                _ZNSt20_List_const_iteratorIP16CommandParameterEC1EPKNSt8__detail15_List_node_baseE
                0x000000000002de26                _ZNSt20_List_const_iteratorIP16CommandParameterEC2EPKNSt8__detail15_List_node_baseE
 .text._ZSt19__iterator_categoryISt20_List_const_iteratorIP16CommandParameterEENSt15iterator_traitsIT_E17iterator_categoryERKS5_
                0x000000000002de3f        0xa ./Command.o
                0x000000000002de3f                _ZSt19__iterator_categoryISt20_List_const_iteratorIP16CommandParameterEENSt15iterator_traitsIT_E17iterator_categoryERKS5_
 .text._ZSt10__distanceISt20_List_const_iteratorIP16CommandParameterEENSt15iterator_traitsIT_E15difference_typeES5_S5_St18input_iterator_tag
                0x000000000002de49       0x48 ./Command.o
                0x000000000002de49                _ZSt10__distanceISt20_List_const_iteratorIP16CommandParameterEENSt15iterator_traitsIT_E15difference_typeES5_S5_St18input_iterator_tag
 *fill*         0x000000000002de91        0x1 90909090
 .text._ZNSaISt10_List_nodeIP16CommandParameterEEC2Ev
                0x000000000002de92       0x1a ./Command.o
                0x000000000002de92                _ZNSaISt10_List_nodeIP16CommandParameterEEC2Ev
                0x000000000002de92                _ZNSaISt10_List_nodeIP16CommandParameterEEC1Ev
 .text._ZNSt10_List_baseIP16CommandParameterSaIS1_EE11_M_get_nodeEv
                0x000000000002deac       0x24 ./Command.o
                0x000000000002deac                _ZNSt10_List_baseIP16CommandParameterSaIS1_EE11_M_get_nodeEv
 .text._ZN9__gnu_cxx13new_allocatorIP16CommandParameterE9constructEPS2_RKS2_
                0x000000000002ded0       0x36 ./Command.o
                0x000000000002ded0                _ZN9__gnu_cxx13new_allocatorIP16CommandParameterE9constructEPS2_RKS2_
 .text._ZNKSt10_List_baseIP16CommandParameterSaIS1_EE21_M_get_Node_allocatorEv
                0x000000000002df06        0xe ./Command.o
                0x000000000002df06                _ZNKSt10_List_baseIP16CommandParameterSaIS1_EE21_M_get_Node_allocatorEv
 .text._ZNSaIP16CommandParameterEC2ISt10_List_nodeIS0_EEERKSaIT_E
                0x000000000002df14       0x1e ./Command.o
                0x000000000002df14                _ZNSaIP16CommandParameterEC2ISt10_List_nodeIS0_EEERKSaIT_E
                0x000000000002df14                _ZNSaIP16CommandParameterEC1ISt10_List_nodeIS0_EEERKSaIT_E
 .text._ZN9__gnu_cxx13new_allocatorIP16CommandParameterED2Ev
                0x000000000002df32        0xa ./Command.o
                0x000000000002df32                _ZN9__gnu_cxx13new_allocatorIP16CommandParameterED1Ev
                0x000000000002df32                _ZN9__gnu_cxx13new_allocatorIP16CommandParameterED2Ev
 .text._ZN9__gnu_cxx13new_allocatorISt10_List_nodeIP16CommandParameterEE10deallocateEPS4_m
                0x000000000002df3c       0x22 ./Command.o
                0x000000000002df3c                _ZN9__gnu_cxx13new_allocatorISt10_List_nodeIP16CommandParameterEE10deallocateEPS4_m
 .text._ZNKSt20_List_const_iteratorIP16CommandParameterEneERKS2_
                0x000000000002df5e       0x22 ./Command.o
                0x000000000002df5e                _ZNKSt20_List_const_iteratorIP16CommandParameterEneERKS2_
 .text._ZNSt20_List_const_iteratorIP16CommandParameterEppEv
                0x000000000002df80       0x1f ./Command.o
                0x000000000002df80                _ZNSt20_List_const_iteratorIP16CommandParameterEppEv
 *fill*         0x000000000002df9f        0x1 90909090
 .text._ZN9__gnu_cxx13new_allocatorISt10_List_nodeIP16CommandParameterEEC2Ev
                0x000000000002dfa0        0xa ./Command.o
                0x000000000002dfa0                _ZN9__gnu_cxx13new_allocatorISt10_List_nodeIP16CommandParameterEEC2Ev
                0x000000000002dfa0                _ZN9__gnu_cxx13new_allocatorISt10_List_nodeIP16CommandParameterEEC1Ev
 .text._ZN9__gnu_cxx13new_allocatorISt10_List_nodeIP16CommandParameterEE8allocateEmPKv
                0x000000000002dfaa       0x4b ./Command.o
                0x000000000002dfaa                _ZN9__gnu_cxx13new_allocatorISt10_List_nodeIP16CommandParameterEE8allocateEmPKv
 *fill*         0x000000000002dff5        0x1 90909090
 .text._ZN9__gnu_cxx13new_allocatorIP16CommandParameterEC2Ev
                0x000000000002dff6        0xa ./Command.o
                0x000000000002dff6                _ZN9__gnu_cxx13new_allocatorIP16CommandParameterEC2Ev
                0x000000000002dff6                _ZN9__gnu_cxx13new_allocatorIP16CommandParameterEC1Ev
 .text._ZNK9__gnu_cxx13new_allocatorISt10_List_nodeIP16CommandParameterEE8max_sizeEv
                0x000000000002e000       0x14 ./Command.o
                0x000000000002e000                _ZNK9__gnu_cxx13new_allocatorISt10_List_nodeIP16CommandParameterEE8max_sizeEv
 .text          0x000000000002e014      0xe7a ./Configuration.o
                0x000000000002e014                _ZN13ConfigurationC2Ev
                0x000000000002e014                _ZN13ConfigurationC1Ev
                0x000000000002e044                _ZN13ConfigurationD2Ev
                0x000000000002e044                _ZN13ConfigurationD1Ev
                0x000000000002e08c                _ZN13ConfigurationD0Ev
                0x000000000002e0b2                _ZN13Configuration8InstanceEv
                0x000000000002e10c                _ZN13Configuration10InitializeEPKcPFvSsE
                0x000000000002e394                _ZN13Configuration8SetParamEPKcS1_
                0x000000000002e494                _ZN13Configuration16SaveToConfigFileEv
                0x000000000002e7a4                _ZN13Configuration14GetStringParamESs
                0x000000000002e826                _ZN13Configuration11GetIntParamESs
                0x000000000002e8ee                _ZN13Configuration26GetSettingsJsonDescriptionEv
                0x000000000002ed28                _ZN13Configuration12SaveSettingsESt3mapISsSsSt4lessISsESaISt4pairIKSsSsEEE
 .text._ZdlPvS_
                0x000000000002ee8e        0xe ./Configuration.o
                0x000000000002ee8e                _ZdlPvS_
 .text._ZStorSt13_Ios_OpenmodeS_
                0x000000000002ee9c       0x14 ./Configuration.o
                0x000000000002ee9c                _ZStorSt13_Ios_OpenmodeS_
 .text._ZNSt3mapISsSsSt4lessISsESaISt4pairIKSsSsEEED2Ev
                0x000000000002eeb0       0x1a ./Configuration.o
                0x000000000002eeb0                _ZNSt3mapISsSsSt4lessISsESaISt4pairIKSsSsEEED2Ev
                0x000000000002eeb0                _ZNSt3mapISsSsSt4lessISsESaISt4pairIKSsSsEEED1Ev
 .text._ZNSt3mapISsSsSt4lessISsESaISt4pairIKSsSsEEEC2Ev
                0x000000000002eeca       0x1a ./Configuration.o
                0x000000000002eeca                _ZNSt3mapISsSsSt4lessISsESaISt4pairIKSsSsEEEC1Ev
                0x000000000002eeca                _ZNSt3mapISsSsSt4lessISsESaISt4pairIKSsSsEEEC2Ev
 .text._ZNSt8_Rb_treeISsSt4pairIKSsSsESt10_Select1stIS2_ESt4lessISsESaIS2_EE13_Rb_tree_implIS6_Lb0EED2Ev
                0x000000000002eee4       0x1a ./Configuration.o
                0x000000000002eee4                _ZNSt8_Rb_treeISsSt4pairIKSsSsESt10_Select1stIS2_ESt4lessISsESaIS2_EE13_Rb_tree_implIS6_Lb0EED1Ev
                0x000000000002eee4                _ZNSt8_Rb_treeISsSt4pairIKSsSsESt10_Select1stIS2_ESt4lessISsESaIS2_EE13_Rb_tree_implIS6_Lb0EED2Ev
 .text._ZNSt8_Rb_treeISsSt4pairIKSsSsESt10_Select1stIS2_ESt4lessISsESaIS2_EED2Ev
                0x000000000002eefe       0x58 ./Configuration.o
                0x000000000002eefe                _ZNSt8_Rb_treeISsSt4pairIKSsSsESt10_Select1stIS2_ESt4lessISsESaIS2_EED1Ev
                0x000000000002eefe                _ZNSt8_Rb_treeISsSt4pairIKSsSsESt10_Select1stIS2_ESt4lessISsESaIS2_EED2Ev
 .text._ZNSt3mapISsSsSt4lessISsESaISt4pairIKSsSsEEE5clearEv
                0x000000000002ef56       0x1a ./Configuration.o
                0x000000000002ef56                _ZNSt3mapISsSsSt4lessISsESaISt4pairIKSsSsEEE5clearEv
 .text._ZNSt4pairIKSsSsED2Ev
                0x000000000002ef70       0x4a ./Configuration.o
                0x000000000002ef70                _ZNSt4pairIKSsSsED2Ev
                0x000000000002ef70                _ZNSt4pairIKSsSsED1Ev
 .text._ZNSt3mapISsSsSt4lessISsESaISt4pairIKSsSsEEEixERS3_
                0x000000000002efba      0x12c ./Configuration.o
                0x000000000002efba                _ZNSt3mapISsSsSt4lessISsESaISt4pairIKSsSsEEEixERS3_
 .text._ZNSt17_Rb_tree_iteratorISt4pairIKSsSsEEC2Ev
                0x000000000002f0e6       0x15 ./Configuration.o
                0x000000000002f0e6                _ZNSt17_Rb_tree_iteratorISt4pairIKSsSsEEC2Ev
                0x000000000002f0e6                _ZNSt17_Rb_tree_iteratorISt4pairIKSsSsEEC1Ev
 *fill*         0x000000000002f0fb        0x1 90909090
 .text._ZNSt3mapISsSsSt4lessISsESaISt4pairIKSsSsEEE5beginEv
                0x000000000002f0fc       0x1a ./Configuration.o
                0x000000000002f0fc                _ZNSt3mapISsSsSt4lessISsESaISt4pairIKSsSsEEE5beginEv
 .text._ZNSt3mapISsSsSt4lessISsESaISt4pairIKSsSsEEE3endEv
                0x000000000002f116       0x1a ./Configuration.o
                0x000000000002f116                _ZNSt3mapISsSsSt4lessISsESaISt4pairIKSsSsEEE3endEv
 .text._ZNKSt17_Rb_tree_iteratorISt4pairIKSsSsEEneERKS3_
                0x000000000002f130       0x22 ./Configuration.o
                0x000000000002f130                _ZNKSt17_Rb_tree_iteratorISt4pairIKSsSsEEneERKS3_
 .text._ZNSt17_Rb_tree_iteratorISt4pairIKSsSsEEppEi
                0x000000000002f152       0x36 ./Configuration.o
                0x000000000002f152                _ZNSt17_Rb_tree_iteratorISt4pairIKSsSsEEppEi
 .text._ZNKSt17_Rb_tree_iteratorISt4pairIKSsSsEEdeEv
                0x000000000002f188       0x15 ./Configuration.o
                0x000000000002f188                _ZNKSt17_Rb_tree_iteratorISt4pairIKSsSsEEdeEv
 *fill*         0x000000000002f19d        0x1 90909090
 .text._ZNKSt3mapISsSsSt4lessISsESaISt4pairIKSsSsEEE4sizeEv
                0x000000000002f19e       0x1a ./Configuration.o
                0x000000000002f19e                _ZNKSt3mapISsSsSt4lessISsESaISt4pairIKSsSsEEE4sizeEv
 .text._ZNSt3mapISsSsSt4lessISsESaISt4pairIKSsSsEEE4findERS3_
                0x000000000002f1b8       0x25 ./Configuration.o
                0x000000000002f1b8                _ZNSt3mapISsSsSt4lessISsESaISt4pairIKSsSsEEE4findERS3_
 *fill*         0x000000000002f1dd        0x1 90909090
 .text._ZNSt8_Rb_treeISsSt4pairIKSsSsESt10_Select1stIS2_ESt4lessISsESaIS2_EEC2Ev
                0x000000000002f1de       0x1a ./Configuration.o
                0x000000000002f1de                _ZNSt8_Rb_treeISsSt4pairIKSsSsESt10_Select1stIS2_ESt4lessISsESaIS2_EEC1Ev
                0x000000000002f1de                _ZNSt8_Rb_treeISsSt4pairIKSsSsESt10_Select1stIS2_ESt4lessISsESaIS2_EEC2Ev
 .text._ZNSaISt13_Rb_tree_nodeISt4pairIKSsSsEEED2Ev
                0x000000000002f1f8       0x1a ./Configuration.o
                0x000000000002f1f8                _ZNSaISt13_Rb_tree_nodeISt4pairIKSsSsEEED1Ev
                0x000000000002f1f8                _ZNSaISt13_Rb_tree_nodeISt4pairIKSsSsEEED2Ev
 .text._ZNSt8_Rb_treeISsSt4pairIKSsSsESt10_Select1stIS2_ESt4lessISsESaIS2_EE8_M_eraseEPSt13_Rb_tree_nodeIS2_E
                0x000000000002f212       0x69 ./Configuration.o
                0x000000000002f212                _ZNSt8_Rb_treeISsSt4pairIKSsSsESt10_Select1stIS2_ESt4lessISsESaIS2_EE8_M_eraseEPSt13_Rb_tree_nodeIS2_E
 *fill*         0x000000000002f27b        0x1 90909090
 .text._ZNSt8_Rb_treeISsSt4pairIKSsSsESt10_Select1stIS2_ESt4lessISsESaIS2_EE8_M_beginEv
                0x000000000002f27c       0x12 ./Configuration.o
                0x000000000002f27c                _ZNSt8_Rb_treeISsSt4pairIKSsSsESt10_Select1stIS2_ESt4lessISsESaIS2_EE8_M_beginEv
 .text._ZNSt8_Rb_treeISsSt4pairIKSsSsESt10_Select1stIS2_ESt4lessISsESaIS2_EE5clearEv
                0x000000000002f28e       0x8d ./Configuration.o
                0x000000000002f28e                _ZNSt8_Rb_treeISsSt4pairIKSsSsESt10_Select1stIS2_ESt4lessISsESaIS2_EE5clearEv
 *fill*         0x000000000002f31b        0x1 90909090
 .text._ZNSt3mapISsSsSt4lessISsESaISt4pairIKSsSsEEE11lower_boundERS3_
                0x000000000002f31c       0x25 ./Configuration.o
                0x000000000002f31c                _ZNSt3mapISsSsSt4lessISsESaISt4pairIKSsSsEEE11lower_boundERS3_
 *fill*         0x000000000002f341        0x1 90909090
 .text._ZNKSt3mapISsSsSt4lessISsESaISt4pairIKSsSsEEE8key_compEv
                0x000000000002f342       0x22 ./Configuration.o
                0x000000000002f342                _ZNKSt3mapISsSsSt4lessISsESaISt4pairIKSsSsEEE8key_compEv
 .text._ZNKSt4lessISsEclERKSsS2_
                0x000000000002f364       0x29 ./Configuration.o
                0x000000000002f364                _ZNKSt4lessISsEclERKSsS2_
 *fill*         0x000000000002f38d        0x1 90909090
 .text._ZNKSt17_Rb_tree_iteratorISt4pairIKSsSsEEeqERKS3_
                0x000000000002f38e       0x22 ./Configuration.o
                0x000000000002f38e                _ZNKSt17_Rb_tree_iteratorISt4pairIKSsSsEEeqERKS3_
 .text._ZNSt4pairIKSsSsEC2ERS0_S2_
                0x000000000002f3b0       0x62 ./Configuration.o
                0x000000000002f3b0                _ZNSt4pairIKSsSsEC1ERS0_S2_
                0x000000000002f3b0                _ZNSt4pairIKSsSsEC2ERS0_S2_
 .text._ZNSt3mapISsSsSt4lessISsESaISt4pairIKSsSsEEE6insertESt17_Rb_tree_iteratorIS4_ERKS4_
                0x000000000002f412       0x40 ./Configuration.o
                0x000000000002f412                _ZNSt3mapISsSsSt4lessISsESaISt4pairIKSsSsEEE6insertESt17_Rb_tree_iteratorIS4_ERKS4_
 .text._ZNSt8_Rb_treeISsSt4pairIKSsSsESt10_Select1stIS2_ESt4lessISsESaIS2_EE5beginEv
                0x000000000002f452       0x29 ./Configuration.o
                0x000000000002f452                _ZNSt8_Rb_treeISsSt4pairIKSsSsESt10_Select1stIS2_ESt4lessISsESaIS2_EE5beginEv
 *fill*         0x000000000002f47b        0x1 90909090
 .text._ZNSt8_Rb_treeISsSt4pairIKSsSsESt10_Select1stIS2_ESt4lessISsESaIS2_EE3endEv
                0x000000000002f47c       0x29 ./Configuration.o
                0x000000000002f47c                _ZNSt8_Rb_treeISsSt4pairIKSsSsESt10_Select1stIS2_ESt4lessISsESaIS2_EE3endEv
 *fill*         0x000000000002f4a5        0x1 90909090
 .text._ZNKSt8_Rb_treeISsSt4pairIKSsSsESt10_Select1stIS2_ESt4lessISsESaIS2_EE4sizeEv
                0x000000000002f4a6       0x12 ./Configuration.o
                0x000000000002f4a6                _ZNKSt8_Rb_treeISsSt4pairIKSsSsESt10_Select1stIS2_ESt4lessISsESaIS2_EE4sizeEv
 .text._ZNSt8_Rb_treeISsSt4pairIKSsSsESt10_Select1stIS2_ESt4lessISsESaIS2_EE4findERS1_
                0x000000000002f4b8       0xaf ./Configuration.o
                0x000000000002f4b8                _ZNSt8_Rb_treeISsSt4pairIKSsSsESt10_Select1stIS2_ESt4lessISsESaIS2_EE4findERS1_
 *fill*         0x000000000002f567        0x1 90909090
 .text._ZNSt8_Rb_treeISsSt4pairIKSsSsESt10_Select1stIS2_ESt4lessISsESaIS2_EE13_Rb_tree_implIS6_Lb0EEC2Ev
                0x000000000002f568       0x83 ./Configuration.o
                0x000000000002f568                _ZNSt8_Rb_treeISsSt4pairIKSsSsESt10_Select1stIS2_ESt4lessISsESaIS2_EE13_Rb_tree_implIS6_Lb0EEC1Ev
                0x000000000002f568                _ZNSt8_Rb_treeISsSt4pairIKSsSsESt10_Select1stIS2_ESt4lessISsESaIS2_EE13_Rb_tree_implIS6_Lb0EEC2Ev
 *fill*         0x000000000002f5eb        0x1 90909090
 .text._ZN9__gnu_cxx13new_allocatorISt13_Rb_tree_nodeISt4pairIKSsSsEEED2Ev
                0x000000000002f5ec        0xa ./Configuration.o
                0x000000000002f5ec                _ZN9__gnu_cxx13new_allocatorISt13_Rb_tree_nodeISt4pairIKSsSsEEED1Ev
                0x000000000002f5ec                _ZN9__gnu_cxx13new_allocatorISt13_Rb_tree_nodeISt4pairIKSsSsEEED2Ev
 .text._ZNSt8_Rb_treeISsSt4pairIKSsSsESt10_Select1stIS2_ESt4lessISsESaIS2_EE8_S_rightEPSt18_Rb_tree_node_base
                0x000000000002f5f6       0x12 ./Configuration.o
                0x000000000002f5f6                _ZNSt8_Rb_treeISsSt4pairIKSsSsESt10_Select1stIS2_ESt4lessISsESaIS2_EE8_S_rightEPSt18_Rb_tree_node_base
 .text._ZNSt8_Rb_treeISsSt4pairIKSsSsESt10_Select1stIS2_ESt4lessISsESaIS2_EE7_S_leftEPSt18_Rb_tree_node_base
                0x000000000002f608       0x12 ./Configuration.o
                0x000000000002f608                _ZNSt8_Rb_treeISsSt4pairIKSsSsESt10_Select1stIS2_ESt4lessISsESaIS2_EE7_S_leftEPSt18_Rb_tree_node_base
 .text._ZNSt8_Rb_treeISsSt4pairIKSsSsESt10_Select1stIS2_ESt4lessISsESaIS2_EE15_M_destroy_nodeEPSt13_Rb_tree_nodeIS2_E
                0x000000000002f61a       0x86 ./Configuration.o
                0x000000000002f61a                _ZNSt8_Rb_treeISsSt4pairIKSsSsESt10_Select1stIS2_ESt4lessISsESaIS2_EE15_M_destroy_nodeEPSt13_Rb_tree_nodeIS2_E
 .text._ZNSt8_Rb_treeISsSt4pairIKSsSsESt10_Select1stIS2_ESt4lessISsESaIS2_EE6_M_endEv
                0x000000000002f6a0       0x12 ./Configuration.o
                0x000000000002f6a0                _ZNSt8_Rb_treeISsSt4pairIKSsSsESt10_Select1stIS2_ESt4lessISsESaIS2_EE6_M_endEv
 .text._ZNSt8_Rb_treeISsSt4pairIKSsSsESt10_Select1stIS2_ESt4lessISsESaIS2_EE11_M_leftmostEv
                0x000000000002f6b2       0x12 ./Configuration.o
                0x000000000002f6b2                _ZNSt8_Rb_treeISsSt4pairIKSsSsESt10_Select1stIS2_ESt4lessISsESaIS2_EE11_M_leftmostEv
 .text._ZNSt8_Rb_treeISsSt4pairIKSsSsESt10_Select1stIS2_ESt4lessISsESaIS2_EE7_M_rootEv
                0x000000000002f6c4       0x12 ./Configuration.o
                0x000000000002f6c4                _ZNSt8_Rb_treeISsSt4pairIKSsSsESt10_Select1stIS2_ESt4lessISsESaIS2_EE7_M_rootEv
 .text._ZNSt8_Rb_treeISsSt4pairIKSsSsESt10_Select1stIS2_ESt4lessISsESaIS2_EE12_M_rightmostEv
                0x000000000002f6d6       0x12 ./Configuration.o
                0x000000000002f6d6                _ZNSt8_Rb_treeISsSt4pairIKSsSsESt10_Select1stIS2_ESt4lessISsESaIS2_EE12_M_rightmostEv
 .text._ZNSt8_Rb_treeISsSt4pairIKSsSsESt10_Select1stIS2_ESt4lessISsESaIS2_EE11lower_boundERS1_
                0x000000000002f6e8       0x4c ./Configuration.o
                0x000000000002f6e8                _ZNSt8_Rb_treeISsSt4pairIKSsSsESt10_Select1stIS2_ESt4lessISsESaIS2_EE11lower_boundERS1_
 .text._ZNKSt8_Rb_treeISsSt4pairIKSsSsESt10_Select1stIS2_ESt4lessISsESaIS2_EE8key_compEv
                0x000000000002f734        0xa ./Configuration.o
                0x000000000002f734                _ZNKSt8_Rb_treeISsSt4pairIKSsSsESt10_Select1stIS2_ESt4lessISsESaIS2_EE8key_compEv
 .text._ZStltIcSt11char_traitsIcESaIcEEbRKSbIT_T0_T1_ES8_
                0x000000000002f73e       0x28 ./Configuration.o
                0x000000000002f73e                _ZStltIcSt11char_traitsIcESaIcEEbRKSbIT_T0_T1_ES8_
 .text._ZNSt23_Rb_tree_const_iteratorISt4pairIKSsSsEEC2ERKSt17_Rb_tree_iteratorIS2_E
                0x000000000002f766       0x1c ./Configuration.o
                0x000000000002f766                _ZNSt23_Rb_tree_const_iteratorISt4pairIKSsSsEEC1ERKSt17_Rb_tree_iteratorIS2_E
                0x000000000002f766                _ZNSt23_Rb_tree_const_iteratorISt4pairIKSsSsEEC2ERKSt17_Rb_tree_iteratorIS2_E
 .text._ZNSt8_Rb_treeISsSt4pairIKSsSsESt10_Select1stIS2_ESt4lessISsESaIS2_EE17_M_insert_unique_ESt23_Rb_tree_const_iteratorIS2_ERKS2_
                0x000000000002f782      0x3cd ./Configuration.o
                0x000000000002f782                _ZNSt8_Rb_treeISsSt4pairIKSsSsESt10_Select1stIS2_ESt4lessISsESaIS2_EE17_M_insert_unique_ESt23_Rb_tree_const_iteratorIS2_ERKS2_
 *fill*         0x000000000002fb4f        0x1 90909090
 .text._ZNSt17_Rb_tree_iteratorISt4pairIKSsSsEEC2EPSt13_Rb_tree_nodeIS2_E
                0x000000000002fb50       0x19 ./Configuration.o
                0x000000000002fb50                _ZNSt17_Rb_tree_iteratorISt4pairIKSsSsEEC1EPSt13_Rb_tree_nodeIS2_E
                0x000000000002fb50                _ZNSt17_Rb_tree_iteratorISt4pairIKSsSsEEC2EPSt13_Rb_tree_nodeIS2_E
 *fill*         0x000000000002fb69        0x1 90909090
 .text._ZNSt8_Rb_treeISsSt4pairIKSsSsESt10_Select1stIS2_ESt4lessISsESaIS2_EE14_M_lower_boundEPSt13_Rb_tree_nodeIS2_ESB_RS1_
                0x000000000002fb6a       0x92 ./Configuration.o
                0x000000000002fb6a                _ZNSt8_Rb_treeISsSt4pairIKSsSsESt10_Select1stIS2_ESt4lessISsESaIS2_EE14_M_lower_boundEPSt13_Rb_tree_nodeIS2_ESB_RS1_
 .text._ZNSt8_Rb_treeISsSt4pairIKSsSsESt10_Select1stIS2_ESt4lessISsESaIS2_EE6_S_keyEPKSt18_Rb_tree_node_base
                0x000000000002fbfc       0x2c ./Configuration.o
                0x000000000002fbfc                _ZNSt8_Rb_treeISsSt4pairIKSsSsESt10_Select1stIS2_ESt4lessISsESaIS2_EE6_S_keyEPKSt18_Rb_tree_node_base
 .text._ZNSaISt13_Rb_tree_nodeISt4pairIKSsSsEEEC2Ev
                0x000000000002fc28       0x1a ./Configuration.o
                0x000000000002fc28                _ZNSaISt13_Rb_tree_nodeISt4pairIKSsSsEEEC1Ev
                0x000000000002fc28                _ZNSaISt13_Rb_tree_nodeISt4pairIKSsSsEEEC2Ev
 .text._ZNSt8_Rb_treeISsSt4pairIKSsSsESt10_Select1stIS2_ESt4lessISsESaIS2_EE13_Rb_tree_implIS6_Lb0EE13_M_initializeEv
                0x000000000002fc42       0x41 ./Configuration.o
                0x000000000002fc42                _ZNSt8_Rb_treeISsSt4pairIKSsSsESt10_Select1stIS2_ESt4lessISsESaIS2_EE13_Rb_tree_implIS6_Lb0EE13_M_initializeEv
 *fill*         0x000000000002fc83        0x1 90909090
 .text._ZNKSt8_Rb_treeISsSt4pairIKSsSsESt10_Select1stIS2_ESt4lessISsESaIS2_EE13get_allocatorEv
                0x000000000002fc84       0x34 ./Configuration.o
                0x000000000002fc84                _ZNKSt8_Rb_treeISsSt4pairIKSsSsESt10_Select1stIS2_ESt4lessISsESaIS2_EE13get_allocatorEv
 .text._ZNSaISt4pairIKSsSsEED2Ev
                0x000000000002fcb8       0x1a ./Configuration.o
                0x000000000002fcb8                _ZNSaISt4pairIKSsSsEED1Ev
                0x000000000002fcb8                _ZNSaISt4pairIKSsSsEED2Ev
 .text._ZSt11__addressofISt4pairIKSsSsEEPT_RS3_
                0x000000000002fcd2        0xe ./Configuration.o
                0x000000000002fcd2                _ZSt11__addressofISt4pairIKSsSsEEPT_RS3_
 .text._ZN9__gnu_cxx13new_allocatorISt4pairIKSsSsEE7destroyEPS3_
                0x000000000002fce0       0x1e ./Configuration.o
                0x000000000002fce0                _ZN9__gnu_cxx13new_allocatorISt4pairIKSsSsEE7destroyEPS3_
 .text._ZNSt8_Rb_treeISsSt4pairIKSsSsESt10_Select1stIS2_ESt4lessISsESaIS2_EE11_M_put_nodeEPSt13_Rb_tree_nodeIS2_E
                0x000000000002fcfe       0x2a ./Configuration.o
                0x000000000002fcfe                _ZNSt8_Rb_treeISsSt4pairIKSsSsESt10_Select1stIS2_ESt4lessISsESaIS2_EE11_M_put_nodeEPSt13_Rb_tree_nodeIS2_E
 .text._ZNKSt10_Select1stISt4pairIKSsSsEEclERKS2_
                0x000000000002fd28       0x12 ./Configuration.o
                0x000000000002fd28                _ZNKSt10_Select1stISt4pairIKSsSsEEclERKS2_
 .text._ZNSt8_Rb_treeISsSt4pairIKSsSsESt10_Select1stIS2_ESt4lessISsESaIS2_EE10_M_insert_EPKSt18_Rb_tree_node_baseSB_RKS2_
                0x000000000002fd3a       0xe0 ./Configuration.o
                0x000000000002fd3a                _ZNSt8_Rb_treeISsSt4pairIKSsSsESt10_Select1stIS2_ESt4lessISsESaIS2_EE10_M_insert_EPKSt18_Rb_tree_node_baseSB_RKS2_
 .text._ZNSt8_Rb_treeISsSt4pairIKSsSsESt10_Select1stIS2_ESt4lessISsESaIS2_EE16_M_insert_uniqueERKS2_
                0x000000000002fe1a      0x241 ./Configuration.o
                0x000000000002fe1a                _ZNSt8_Rb_treeISsSt4pairIKSsSsESt10_Select1stIS2_ESt4lessISsESaIS2_EE16_M_insert_uniqueERKS2_
 *fill*         0x000000000003005b        0x1 90909090
 .text._ZNSt23_Rb_tree_const_iteratorISt4pairIKSsSsEEmmEv
                0x000000000003005c       0x28 ./Configuration.o
                0x000000000003005c                _ZNSt23_Rb_tree_const_iteratorISt4pairIKSsSsEEmmEv
 .text._ZNSt8_Rb_treeISsSt4pairIKSsSsESt10_Select1stIS2_ESt4lessISsESaIS2_EE8_S_rightEPKSt18_Rb_tree_node_base
                0x0000000000030084       0x12 ./Configuration.o
                0x0000000000030084                _ZNSt8_Rb_treeISsSt4pairIKSsSsESt10_Select1stIS2_ESt4lessISsESaIS2_EE8_S_rightEPKSt18_Rb_tree_node_base
 .text._ZNSt23_Rb_tree_const_iteratorISt4pairIKSsSsEEppEv
                0x0000000000030096       0x28 ./Configuration.o
                0x0000000000030096                _ZNSt23_Rb_tree_const_iteratorISt4pairIKSsSsEEppEv
 .text._ZNKSt23_Rb_tree_const_iteratorISt4pairIKSsSsEE13_M_const_castEv
                0x00000000000300be       0x28 ./Configuration.o
                0x00000000000300be                _ZNKSt23_Rb_tree_const_iteratorISt4pairIKSsSsEE13_M_const_castEv
 .text._ZNSt8_Rb_treeISsSt4pairIKSsSsESt10_Select1stIS2_ESt4lessISsESaIS2_EE6_S_keyEPKSt13_Rb_tree_nodeIS2_E
                0x00000000000300e6       0x2c ./Configuration.o
                0x00000000000300e6                _ZNSt8_Rb_treeISsSt4pairIKSsSsESt10_Select1stIS2_ESt4lessISsESaIS2_EE6_S_keyEPKSt13_Rb_tree_nodeIS2_E
 .text._ZNSt8_Rb_treeISsSt4pairIKSsSsESt10_Select1stIS2_ESt4lessISsESaIS2_EE8_S_valueEPKSt18_Rb_tree_node_base
                0x0000000000030112       0x12 ./Configuration.o
                0x0000000000030112                _ZNSt8_Rb_treeISsSt4pairIKSsSsESt10_Select1stIS2_ESt4lessISsESaIS2_EE8_S_valueEPKSt18_Rb_tree_node_base
 .text._ZN9__gnu_cxx13new_allocatorISt13_Rb_tree_nodeISt4pairIKSsSsEEEC2Ev
                0x0000000000030124        0xa ./Configuration.o
                0x0000000000030124                _ZN9__gnu_cxx13new_allocatorISt13_Rb_tree_nodeISt4pairIKSsSsEEEC1Ev
                0x0000000000030124                _ZN9__gnu_cxx13new_allocatorISt13_Rb_tree_nodeISt4pairIKSsSsEEEC2Ev
 .text._ZNKSt8_Rb_treeISsSt4pairIKSsSsESt10_Select1stIS2_ESt4lessISsESaIS2_EE21_M_get_Node_allocatorEv
                0x000000000003012e        0xe ./Configuration.o
                0x000000000003012e                _ZNKSt8_Rb_treeISsSt4pairIKSsSsESt10_Select1stIS2_ESt4lessISsESaIS2_EE21_M_get_Node_allocatorEv
 .text._ZNSaISt4pairIKSsSsEEC2ISt13_Rb_tree_nodeIS1_EEERKSaIT_E
                0x000000000003013c       0x1e ./Configuration.o
                0x000000000003013c                _ZNSaISt4pairIKSsSsEEC2ISt13_Rb_tree_nodeIS1_EEERKSaIT_E
                0x000000000003013c                _ZNSaISt4pairIKSsSsEEC1ISt13_Rb_tree_nodeIS1_EEERKSaIT_E
 .text._ZN9__gnu_cxx13new_allocatorISt4pairIKSsSsEED2Ev
                0x000000000003015a        0xa ./Configuration.o
                0x000000000003015a                _ZN9__gnu_cxx13new_allocatorISt4pairIKSsSsEED1Ev
                0x000000000003015a                _ZN9__gnu_cxx13new_allocatorISt4pairIKSsSsEED2Ev
 .text._ZN9__gnu_cxx13new_allocatorISt13_Rb_tree_nodeISt4pairIKSsSsEEE10deallocateEPS5_m
                0x0000000000030164       0x22 ./Configuration.o
                0x0000000000030164                _ZN9__gnu_cxx13new_allocatorISt13_Rb_tree_nodeISt4pairIKSsSsEEE10deallocateEPS5_m
 .text._ZNSt8_Rb_treeISsSt4pairIKSsSsESt10_Select1stIS2_ESt4lessISsESaIS2_EE14_M_create_nodeERKS2_
                0x0000000000030186       0xb8 ./Configuration.o
                0x0000000000030186                _ZNSt8_Rb_treeISsSt4pairIKSsSsESt10_Select1stIS2_ESt4lessISsESaIS2_EE14_M_create_nodeERKS2_
 .text._ZNSt4pairISt17_Rb_tree_iteratorIS_IKSsSsEEbEC2ERKS3_RKb
                0x000000000003023e       0x2e ./Configuration.o
                0x000000000003023e                _ZNSt4pairISt17_Rb_tree_iteratorIS_IKSsSsEEbEC2ERKS3_RKb
                0x000000000003023e                _ZNSt4pairISt17_Rb_tree_iteratorIS_IKSsSsEEbEC1ERKS3_RKb
 .text._ZNSt17_Rb_tree_iteratorISt4pairIKSsSsEEmmEv
                0x000000000003026c       0x28 ./Configuration.o
                0x000000000003026c                _ZNSt17_Rb_tree_iteratorISt4pairIKSsSsEEmmEv
 .text._ZNSt8_Rb_treeISsSt4pairIKSsSsESt10_Select1stIS2_ESt4lessISsESaIS2_EE8_S_valueEPKSt13_Rb_tree_nodeIS2_E
                0x0000000000030294       0x12 ./Configuration.o
                0x0000000000030294                _ZNSt8_Rb_treeISsSt4pairIKSsSsESt10_Select1stIS2_ESt4lessISsESaIS2_EE8_S_valueEPKSt13_Rb_tree_nodeIS2_E
 .text._ZN9__gnu_cxx13new_allocatorISt4pairIKSsSsEEC2Ev
                0x00000000000302a6        0xa ./Configuration.o
                0x00000000000302a6                _ZN9__gnu_cxx13new_allocatorISt4pairIKSsSsEEC2Ev
                0x00000000000302a6                _ZN9__gnu_cxx13new_allocatorISt4pairIKSsSsEEC1Ev
 .text._ZNSt8_Rb_treeISsSt4pairIKSsSsESt10_Select1stIS2_ESt4lessISsESaIS2_EE11_M_get_nodeEv
                0x00000000000302b0       0x24 ./Configuration.o
                0x00000000000302b0                _ZNSt8_Rb_treeISsSt4pairIKSsSsESt10_Select1stIS2_ESt4lessISsESaIS2_EE11_M_get_nodeEv
 .text._ZNSt4pairIKSsSsEC2ERKS1_
                0x00000000000302d4       0x62 ./Configuration.o
                0x00000000000302d4                _ZNSt4pairIKSsSsEC2ERKS1_
                0x00000000000302d4                _ZNSt4pairIKSsSsEC1ERKS1_
 .text._ZN9__gnu_cxx13new_allocatorISt4pairIKSsSsEE9constructEPS3_RKS3_
                0x0000000000030336       0x67 ./Configuration.o
                0x0000000000030336                _ZN9__gnu_cxx13new_allocatorISt4pairIKSsSsEE9constructEPS3_RKS3_
 *fill*         0x000000000003039d        0x1 90909090
 .text._ZN9__gnu_cxx13new_allocatorISt13_Rb_tree_nodeISt4pairIKSsSsEEE8allocateEmPKv
                0x000000000003039e       0x4b ./Configuration.o
                0x000000000003039e                _ZN9__gnu_cxx13new_allocatorISt13_Rb_tree_nodeISt4pairIKSsSsEEE8allocateEmPKv
 *fill*         0x00000000000303e9        0x1 90909090
 .text._ZNK9__gnu_cxx13new_allocatorISt13_Rb_tree_nodeISt4pairIKSsSsEEE8max_sizeEv
                0x00000000000303ea       0x14 ./Configuration.o
                0x00000000000303ea                _ZNK9__gnu_cxx13new_allocatorISt13_Rb_tree_nodeISt4pairIKSsSsEEE8max_sizeEv
 *fill*         0x00000000000303fe        0x2 90909090
 .text          0x0000000000030400      0xab8 ./ConnectionPoint.o
                0x0000000000030400                _ZN15ConnectionPointC2EiSs15PinoutDirectionSsSsPv
                0x0000000000030400                _ZN15ConnectionPointC1EiSs15PinoutDirectionSsSsPv
                0x000000000003052e                _ZN15ConnectionPointC1EiSs15PinoutDirectionSs16AgilartDataTypesPv
                0x000000000003052e                _ZN15ConnectionPointC2EiSs15PinoutDirectionSs16AgilartDataTypesPv
                0x0000000000030622                _ZN15ConnectionPointD2Ev
                0x0000000000030622                _ZN15ConnectionPointD1Ev
                0x00000000000306a0                _ZN15ConnectionPointD0Ev
                0x00000000000306c6                _ZN15ConnectionPoint4NameEv
                0x00000000000306f4                _ZN15ConnectionPoint2IdEv
                0x0000000000030706                _ZN15ConnectionPoint8DataTypeEv
                0x0000000000030718                _ZN15ConnectionPoint13IsInitializedEv
                0x000000000003072a                _ZN15ConnectionPoint12IsCalculatedEv
                0x000000000003073c                _ZN15ConnectionPoint26ConnectionPointInitializedEv
                0x000000000003074e                _ZN15ConnectionPoint11SetDataTypeE16AgilartDataTypes
                0x0000000000030766                _ZN15ConnectionPoint16SetIsInitializedEb
                0x0000000000030780                _ZN15ConnectionPoint15SetIsCalculatedEb
                0x000000000003079a                _ZN15ConnectionPoint9DirectionEv
                0x00000000000307ac                _ZN15ConnectionPoint11DescriptionEv
                0x00000000000307da                _ZN15ConnectionPoint5ValueEv
                0x00000000000307ec                _ZN15ConnectionPoint8SetValueEPv
                0x00000000000307fa                _ZN15ConnectionPoint5CloneEv
                0x00000000000308e6                _ZN15ConnectionPoint27RegisterValueChangedHandlerEP13IValueChanged
                0x00000000000308f4                _ZN15ConnectionPoint19TriggerValueChangedEv
                0x00000000000308fe                _ZN15ConnectionPoint22RegisterRefreshHandlerEP13IRefreshValue
                0x000000000003090c                _ZN15ConnectionPoint7RefreshEv
                0x0000000000030916                _ZN15ConnectionPoint6ToJsonEv
                0x0000000000030e32                _ZN15ConnectionPoint8GetStateEv
                0x0000000000030e44                _ZN15ConnectionPoint8SetStateE8PinState
 .text          0x0000000000030eb8      0xba2 ./Convert.o
                0x0000000000030eb8                _ZN7Convert6ToBoolEPv16AgilartDataTypes
                0x0000000000030fd0                _ZN7Convert5ToIntEPv16AgilartDataTypes
                0x00000000000310ea                _ZN7Convert8ToStringEPv16AgilartDataTypes
                0x0000000000031402                _ZN7Convert7ToFloatEPv16AgilartDataTypes
                0x000000000003152e                _ZN7Convert8ToDoubleEPv16AgilartDataTypes
                0x0000000000031682                _ZN7Convert6ToTypeESs
                0x000000000003177e                _ZN7Convert18SupportsConversionE16AgilartDataTypesS0_
                0x0000000000031790                _ZN7Convert8AreEqualEPvS0_16AgilartDataTypes
                0x0000000000031832                _ZN7Convert14ToTypeInstanceEPv16AgilartDataTypesS1_
                0x0000000000031976                _ZN7Convert11GetBaseTypeE16AgilartDataTypesS0_
 *fill*         0x0000000000031a5a        0x2 90909090
 .text          0x0000000000031a5c      0x394 ./DataSerializationManager.o
                0x0000000000031a5c                _ZN24DataSerializationManagerC1Ev
                0x0000000000031a5c                _ZN24DataSerializationManagerC2Ev
                0x0000000000031a78                _ZN24DataSerializationManagerD2Ev
                0x0000000000031a78                _ZN24DataSerializationManagerD1Ev
                0x0000000000031ab0                _ZN24DataSerializationManagerD0Ev
                0x0000000000031ad6                _ZN24DataSerializationManager10FileExistsEPKc
                0x0000000000031b1a                _ZN24DataSerializationManager4SaveESsSs
                0x0000000000031be0                _ZN24DataSerializationManager6DeleteESs
                0x0000000000031c02                _ZN24DataSerializationManager4LoadESs
 .text          0x0000000000031df0      0xc21 ./Event.o
                0x0000000000031df0                _ZN5EventC1Ev
                0x0000000000031df0                _ZN5EventC2Ev
                0x0000000000031e8c                _ZN5EventC1ESs
                0x0000000000031e8c                _ZN5EventC2ESs
                0x0000000000031f2c                _ZN5EventC2ESsPSt4listI14EventParameterSaIS1_EE
                0x0000000000031f2c                _ZN5EventC1ESsPSt4listI14EventParameterSaIS1_EE
                0x0000000000031fac                _ZN5EventC1ERKS_
                0x0000000000031fac                _ZN5EventC2ERKS_
                0x0000000000032114                _ZN5EventD2Ev
                0x0000000000032114                _ZN5EventD1Ev
                0x00000000000321ac                _ZN5EventD0Ev
                0x00000000000321d2                _ZN5Event4NameEv
                0x0000000000032200                _ZN5Event10ParametersEv
                0x0000000000032212                _ZN5Event12AddParameterE14EventParameter
                0x000000000003223c                _ZN5Event12GetParameterESs
                0x000000000003233a                _ZN5Event5CloneEv
                0x00000000000324aa                _ZN5Event6ToJsonEv
 *fill*         0x0000000000032a11        0x1 90909090
 .text._ZN14EventParameterC2ERKS_
                0x0000000000032a12       0x3a ./Event.o
                0x0000000000032a12                _ZN14EventParameterC2ERKS_
                0x0000000000032a12                _ZN14EventParameterC1ERKS_
 .text._ZN14EventParameterC2EPKciS1_
                0x0000000000032a4c       0x36 ./Event.o
                0x0000000000032a4c                _ZN14EventParameterC1EPKciS1_
                0x0000000000032a4c                _ZN14EventParameterC2EPKciS1_
 .text._ZN14EventParameterD2Ev
                0x0000000000032a82        0xa ./Event.o
                0x0000000000032a82                _ZN14EventParameterD1Ev
                0x0000000000032a82                _ZN14EventParameterD2Ev
 .text._ZN14EventParameter5CloneEv
                0x0000000000032a8c       0x38 ./Event.o
                0x0000000000032a8c                _ZN14EventParameter5CloneEv
 .text._ZN14EventParameter6ToJsonEv
                0x0000000000032ac4      0x504 ./Event.o
                0x0000000000032ac4                _ZN14EventParameter6ToJsonEv
 .text._ZNSt4listI14EventParameterSaIS0_EED2Ev
                0x0000000000032fc8       0x1a ./Event.o
                0x0000000000032fc8                _ZNSt4listI14EventParameterSaIS0_EED2Ev
                0x0000000000032fc8                _ZNSt4listI14EventParameterSaIS0_EED1Ev
 .text._ZNSt4listI14EventParameterSaIS0_EEC2Ev
                0x0000000000032fe2       0x1a ./Event.o
                0x0000000000032fe2                _ZNSt4listI14EventParameterSaIS0_EEC1Ev
                0x0000000000032fe2                _ZNSt4listI14EventParameterSaIS0_EEC2Ev
 .text._ZNSt14_List_iteratorI14EventParameterEC2Ev
                0x0000000000032ffc       0x15 ./Event.o
                0x0000000000032ffc                _ZNSt14_List_iteratorI14EventParameterEC2Ev
                0x0000000000032ffc                _ZNSt14_List_iteratorI14EventParameterEC1Ev
 *fill*         0x0000000000033011        0x1 90909090
 .text._ZNSt4listI14EventParameterSaIS0_EE5beginEv
                0x0000000000033012       0x28 ./Event.o
                0x0000000000033012                _ZNSt4listI14EventParameterSaIS0_EE5beginEv
 .text._ZNSt4listI14EventParameterSaIS0_EE3endEv
                0x000000000003303a       0x25 ./Event.o
                0x000000000003303a                _ZNSt4listI14EventParameterSaIS0_EE3endEv
 *fill*         0x000000000003305f        0x1 90909090
 .text._ZNKSt14_List_iteratorI14EventParameterEneERKS1_
                0x0000000000033060       0x22 ./Event.o
                0x0000000000033060                _ZNKSt14_List_iteratorI14EventParameterEneERKS1_
 .text._ZNSt14_List_iteratorI14EventParameterEppEi
                0x0000000000033082       0x2d ./Event.o
                0x0000000000033082                _ZNSt14_List_iteratorI14EventParameterEppEi
 *fill*         0x00000000000330af        0x1 90909090
 .text._ZNKSt14_List_iteratorI14EventParameterEdeEv
                0x00000000000330b0       0x15 ./Event.o
                0x00000000000330b0                _ZNKSt14_List_iteratorI14EventParameterEdeEv
 *fill*         0x00000000000330c5        0x1 90909090
 .text._ZNSt4listI14EventParameterSaIS0_EE9push_backERKS0_
                0x00000000000330c6       0x34 ./Event.o
                0x00000000000330c6                _ZNSt4listI14EventParameterSaIS0_EE9push_backERKS0_
 .text._ZNSt10_List_baseI14EventParameterSaIS0_EE10_List_implD2Ev
                0x00000000000330fa       0x1a ./Event.o
                0x00000000000330fa                _ZNSt10_List_baseI14EventParameterSaIS0_EE10_List_implD1Ev
                0x00000000000330fa                _ZNSt10_List_baseI14EventParameterSaIS0_EE10_List_implD2Ev
 .text._ZNSt10_List_baseI14EventParameterSaIS0_EED2Ev
                0x0000000000033114       0x46 ./Event.o
                0x0000000000033114                _ZNSt10_List_baseI14EventParameterSaIS0_EED2Ev
                0x0000000000033114                _ZNSt10_List_baseI14EventParameterSaIS0_EED1Ev
 .text._ZNKSt4listI14EventParameterSaIS0_EE4sizeEv
                0x000000000003315a       0x3a ./Event.o
                0x000000000003315a                _ZNKSt4listI14EventParameterSaIS0_EE4sizeEv
 .text._ZNSt10_List_baseI14EventParameterSaIS0_EEC2Ev
                0x0000000000033194       0x48 ./Event.o
                0x0000000000033194                _ZNSt10_List_baseI14EventParameterSaIS0_EEC1Ev
                0x0000000000033194                _ZNSt10_List_baseI14EventParameterSaIS0_EEC2Ev
 .text._ZNSt14_List_iteratorI14EventParameterEC2EPNSt8__detail15_List_node_baseE
                0x00000000000331dc       0x19 ./Event.o
                0x00000000000331dc                _ZNSt14_List_iteratorI14EventParameterEC2EPNSt8__detail15_List_node_baseE
                0x00000000000331dc                _ZNSt14_List_iteratorI14EventParameterEC1EPNSt8__detail15_List_node_baseE
 *fill*         0x00000000000331f5        0x1 90909090
 .text._ZNSt4listI14EventParameterSaIS0_EE9_M_insertESt14_List_iteratorIS0_ERKS0_
                0x00000000000331f6       0x40 ./Event.o
                0x00000000000331f6                _ZNSt4listI14EventParameterSaIS0_EE9_M_insertESt14_List_iteratorIS0_ERKS0_
 .text._ZNSaISt10_List_nodeI14EventParameterEED2Ev
                0x0000000000033236       0x1a ./Event.o
                0x0000000000033236                _ZNSaISt10_List_nodeI14EventParameterEED2Ev
                0x0000000000033236                _ZNSaISt10_List_nodeI14EventParameterEED1Ev
 .text._ZNSt10_List_baseI14EventParameterSaIS0_EE8_M_clearEv
                0x0000000000033250       0xb3 ./Event.o
                0x0000000000033250                _ZNSt10_List_baseI14EventParameterSaIS0_EE8_M_clearEv
 *fill*         0x0000000000033303        0x1 90909090
 .text._ZNKSt4listI14EventParameterSaIS0_EE5beginEv
                0x0000000000033304       0x28 ./Event.o
                0x0000000000033304                _ZNKSt4listI14EventParameterSaIS0_EE5beginEv
 .text._ZNKSt4listI14EventParameterSaIS0_EE3endEv
                0x000000000003332c       0x25 ./Event.o
                0x000000000003332c                _ZNKSt4listI14EventParameterSaIS0_EE3endEv
 .text._ZSt8distanceISt20_List_const_iteratorI14EventParameterEENSt15iterator_traitsIT_E15difference_typeES4_S4_
                0x0000000000033351       0x3a ./Event.o
                0x0000000000033351                _ZSt8distanceISt20_List_const_iteratorI14EventParameterEENSt15iterator_traitsIT_E15difference_typeES4_S4_
 *fill*         0x000000000003338b        0x1 90909090
 .text._ZNSt10_List_baseI14EventParameterSaIS0_EE10_List_implC2Ev
                0x000000000003338c       0x31 ./Event.o
                0x000000000003338c                _ZNSt10_List_baseI14EventParameterSaIS0_EE10_List_implC2Ev
                0x000000000003338c                _ZNSt10_List_baseI14EventParameterSaIS0_EE10_List_implC1Ev
 *fill*         0x00000000000333bd        0x1 90909090
 .text._ZNSt10_List_baseI14EventParameterSaIS0_EE7_M_initEv
                0x00000000000333be       0x21 ./Event.o
                0x00000000000333be                _ZNSt10_List_baseI14EventParameterSaIS0_EE7_M_initEv
 *fill*         0x00000000000333df        0x1 90909090
 .text._ZNSt4listI14EventParameterSaIS0_EE14_M_create_nodeERKS0_
                0x00000000000333e0       0xb8 ./Event.o
                0x00000000000333e0                _ZNSt4listI14EventParameterSaIS0_EE14_M_create_nodeERKS0_
 .text._ZN9__gnu_cxx13new_allocatorISt10_List_nodeI14EventParameterEED2Ev
                0x0000000000033498        0xa ./Event.o
                0x0000000000033498                _ZN9__gnu_cxx13new_allocatorISt10_List_nodeI14EventParameterEED1Ev
                0x0000000000033498                _ZN9__gnu_cxx13new_allocatorISt10_List_nodeI14EventParameterEED2Ev
 .text._ZNKSt10_List_baseI14EventParameterSaIS0_EE19_M_get_Tp_allocatorEv
                0x00000000000334a2       0x34 ./Event.o
                0x00000000000334a2                _ZNKSt10_List_baseI14EventParameterSaIS0_EE19_M_get_Tp_allocatorEv
 .text._ZNSaI14EventParameterED2Ev
                0x00000000000334d6       0x1a ./Event.o
                0x00000000000334d6                _ZNSaI14EventParameterED2Ev
                0x00000000000334d6                _ZNSaI14EventParameterED1Ev
 .text._ZSt11__addressofI14EventParameterEPT_RS1_
                0x00000000000334f0        0xe ./Event.o
                0x00000000000334f0                _ZSt11__addressofI14EventParameterEPT_RS1_
 .text._ZN9__gnu_cxx13new_allocatorI14EventParameterE7destroyEPS1_
                0x00000000000334fe       0x1e ./Event.o
                0x00000000000334fe                _ZN9__gnu_cxx13new_allocatorI14EventParameterE7destroyEPS1_
 .text._ZNSt10_List_baseI14EventParameterSaIS0_EE11_M_put_nodeEPSt10_List_nodeIS0_E
                0x000000000003351c       0x2a ./Event.o
                0x000000000003351c                _ZNSt10_List_baseI14EventParameterSaIS0_EE11_M_put_nodeEPSt10_List_nodeIS0_E
 .text._ZNSt20_List_const_iteratorI14EventParameterEC2EPKNSt8__detail15_List_node_baseE
                0x0000000000033546       0x19 ./Event.o
                0x0000000000033546                _ZNSt20_List_const_iteratorI14EventParameterEC1EPKNSt8__detail15_List_node_baseE
                0x0000000000033546                _ZNSt20_List_const_iteratorI14EventParameterEC2EPKNSt8__detail15_List_node_baseE
 .text._ZSt19__iterator_categoryISt20_List_const_iteratorI14EventParameterEENSt15iterator_traitsIT_E17iterator_categoryERKS4_
                0x000000000003355f        0xa ./Event.o
                0x000000000003355f                _ZSt19__iterator_categoryISt20_List_const_iteratorI14EventParameterEENSt15iterator_traitsIT_E17iterator_categoryERKS4_
 .text._ZSt10__distanceISt20_List_const_iteratorI14EventParameterEENSt15iterator_traitsIT_E15difference_typeES4_S4_St18input_iterator_tag
                0x0000000000033569       0x48 ./Event.o
                0x0000000000033569                _ZSt10__distanceISt20_List_const_iteratorI14EventParameterEENSt15iterator_traitsIT_E15difference_typeES4_S4_St18input_iterator_tag
 *fill*         0x00000000000335b1        0x1 90909090
 .text._ZNSaISt10_List_nodeI14EventParameterEEC2Ev
                0x00000000000335b2       0x1a ./Event.o
                0x00000000000335b2                _ZNSaISt10_List_nodeI14EventParameterEEC1Ev
                0x00000000000335b2                _ZNSaISt10_List_nodeI14EventParameterEEC2Ev
 .text._ZNSt10_List_baseI14EventParameterSaIS0_EE11_M_get_nodeEv
                0x00000000000335cc       0x24 ./Event.o
                0x00000000000335cc                _ZNSt10_List_baseI14EventParameterSaIS0_EE11_M_get_nodeEv
 .text._ZN9__gnu_cxx13new_allocatorI14EventParameterE9constructEPS1_RKS1_
                0x00000000000335f0       0x3b ./Event.o
                0x00000000000335f0                _ZN9__gnu_cxx13new_allocatorI14EventParameterE9constructEPS1_RKS1_
 *fill*         0x000000000003362b        0x1 90909090
 .text._ZNKSt10_List_baseI14EventParameterSaIS0_EE21_M_get_Node_allocatorEv
                0x000000000003362c        0xe ./Event.o
                0x000000000003362c                _ZNKSt10_List_baseI14EventParameterSaIS0_EE21_M_get_Node_allocatorEv
 .text._ZNSaI14EventParameterEC2ISt10_List_nodeIS_EEERKSaIT_E
                0x000000000003363a       0x1e ./Event.o
                0x000000000003363a                _ZNSaI14EventParameterEC1ISt10_List_nodeIS_EEERKSaIT_E
                0x000000000003363a                _ZNSaI14EventParameterEC2ISt10_List_nodeIS_EEERKSaIT_E
 .text._ZN9__gnu_cxx13new_allocatorI14EventParameterED2Ev
                0x0000000000033658        0xa ./Event.o
                0x0000000000033658                _ZN9__gnu_cxx13new_allocatorI14EventParameterED2Ev
                0x0000000000033658                _ZN9__gnu_cxx13new_allocatorI14EventParameterED1Ev
 .text._ZN9__gnu_cxx13new_allocatorISt10_List_nodeI14EventParameterEE10deallocateEPS3_m
                0x0000000000033662       0x22 ./Event.o
                0x0000000000033662                _ZN9__gnu_cxx13new_allocatorISt10_List_nodeI14EventParameterEE10deallocateEPS3_m
 .text._ZNKSt20_List_const_iteratorI14EventParameterEneERKS1_
                0x0000000000033684       0x22 ./Event.o
                0x0000000000033684                _ZNKSt20_List_const_iteratorI14EventParameterEneERKS1_
 .text._ZNSt20_List_const_iteratorI14EventParameterEppEv
                0x00000000000336a6       0x1f ./Event.o
                0x00000000000336a6                _ZNSt20_List_const_iteratorI14EventParameterEppEv
 *fill*         0x00000000000336c5        0x1 90909090
 .text._ZN9__gnu_cxx13new_allocatorISt10_List_nodeI14EventParameterEEC2Ev
                0x00000000000336c6        0xa ./Event.o
                0x00000000000336c6                _ZN9__gnu_cxx13new_allocatorISt10_List_nodeI14EventParameterEEC2Ev
                0x00000000000336c6                _ZN9__gnu_cxx13new_allocatorISt10_List_nodeI14EventParameterEEC1Ev
 .text._ZN9__gnu_cxx13new_allocatorISt10_List_nodeI14EventParameterEE8allocateEmPKv
                0x00000000000336d0       0x4c ./Event.o
                0x00000000000336d0                _ZN9__gnu_cxx13new_allocatorISt10_List_nodeI14EventParameterEE8allocateEmPKv
 .text._ZN9__gnu_cxx13new_allocatorI14EventParameterEC2Ev
                0x000000000003371c        0xa ./Event.o
                0x000000000003371c                _ZN9__gnu_cxx13new_allocatorI14EventParameterEC1Ev
                0x000000000003371c                _ZN9__gnu_cxx13new_allocatorI14EventParameterEC2Ev
 .text._ZNK9__gnu_cxx13new_allocatorISt10_List_nodeI14EventParameterEE8max_sizeEv
                0x0000000000033726       0x14 ./Event.o
                0x0000000000033726                _ZNK9__gnu_cxx13new_allocatorISt10_List_nodeI14EventParameterEE8max_sizeEv
 *fill*         0x000000000003373a        0x2 90909090
 .text          0x000000000003373c      0x6a2 ./InConnectionPoint.o
                0x000000000003373c                _ZN17InConnectionPointC2EiSsSsSsPv
                0x000000000003373c                _ZN17InConnectionPointC1EiSsSsSsPv
                0x0000000000033854                _ZN17InConnectionPointC2EiSsSs16AgilartDataTypesPv
                0x0000000000033854                _ZN17InConnectionPointC1EiSsSs16AgilartDataTypesPv
                0x000000000003393c                _ZN17InConnectionPointD1Ev
                0x000000000003393c                _ZN17InConnectionPointD2Ev
                0x0000000000033980                _ZN17InConnectionPointD0Ev
                0x00000000000339a6                _ZN17InConnectionPoint8SetValueEPv
                0x0000000000033a24                _ZN17InConnectionPoint5CloneEv
                0x0000000000033c0e                _ZN17InConnectionPoint27RegisterValueChangedHandlerEP13IValueChanged
                0x0000000000033c4c                _ZN17InConnectionPoint19TriggerValueChangedEv
                0x0000000000033cc8                _ZN17InConnectionPoint22RegisterRefreshHandlerEP13IRefreshValue
                0x0000000000033d06                _ZN17InConnectionPoint7RefreshEv
 *fill*         0x0000000000033dde        0x2 90909090
 .text          0x0000000000033de0     0x1ce5 ./JsonParameters.o
 *fill*         0x0000000000035ac5        0x3 90909090
 .text          0x0000000000035ac8      0x292 ./LogEntry.o
                0x0000000000035ac8                _ZN8LogEntryC1EiSsSs
                0x0000000000035ac8                _ZN8LogEntryC2EiSsSs
                0x0000000000035b86                _ZN8LogEntryD2Ev
                0x0000000000035b86                _ZN8LogEntryD1Ev
                0x0000000000035c04                _ZN8LogEntryD0Ev
                0x0000000000035c2a                _ZN8LogEntry9ProcessIdEv
                0x0000000000035c3c                _ZN8LogEntry5LevelEv
                0x0000000000035c6a                _ZN8LogEntry7MessageEv
                0x0000000000035c98                _ZN8LogEntry6ToJsonEv
 *fill*         0x0000000000035d5a        0x2 90909090
 .text          0x0000000000035d5c      0x6a6 ./OutConnectionPoint.o
                0x0000000000035d5c                _ZN18OutConnectionPointC2EiSsSsSsPv
                0x0000000000035d5c                _ZN18OutConnectionPointC1EiSsSsSsPv
                0x0000000000035e74                _ZN18OutConnectionPointC2EiSsSs16AgilartDataTypesPv
                0x0000000000035e74                _ZN18OutConnectionPointC1EiSsSs16AgilartDataTypesPv
                0x0000000000035f5c                _ZN18OutConnectionPointD1Ev
                0x0000000000035f5c                _ZN18OutConnectionPointD2Ev
                0x0000000000035fa0                _ZN18OutConnectionPointD0Ev
                0x0000000000035fc6                _ZN18OutConnectionPoint8SetValueEPv
                0x0000000000036044                _ZN18OutConnectionPoint5CloneEv
                0x0000000000036232                _ZN18OutConnectionPoint27RegisterValueChangedHandlerEP13IValueChanged
                0x0000000000036270                _ZN18OutConnectionPoint19TriggerValueChangedEv
                0x00000000000362ec                _ZN18OutConnectionPoint22RegisterRefreshHandlerEP13IRefreshValue
                0x000000000003632a                _ZN18OutConnectionPoint7RefreshEv
 *fill*         0x0000000000036402        0x2 90909090
 .text          0x0000000000036404      0xdeb ./Pinout.o
                0x0000000000036404                _ZN6PinoutC2Ev
                0x0000000000036404                _ZN6PinoutC1Ev
                0x00000000000364dc                _ZN6PinoutC1ERKS_
                0x00000000000364dc                _ZN6PinoutC2ERKS_
                0x00000000000365a0                _ZN6PinoutC2EiSsSsPSt4listI7CommandSaIS1_EEPS0_I5EventSaIS5_EE
                0x00000000000365a0                _ZN6PinoutC1EiSsSsPSt4listI7CommandSaIS1_EEPS0_I5EventSaIS5_EE
                0x000000000003667c                _ZN6PinoutD1Ev
                0x000000000003667c                _ZN6PinoutD2Ev
                0x0000000000036764                _ZN6PinoutD0Ev
                0x000000000003678a                _ZN6Pinout2IdEv
                0x000000000003679c                _ZN6Pinout4NameEv
                0x00000000000367ca                _ZN6Pinout11DescriptionEv
                0x00000000000367f8                _ZN6Pinout14ExecuteCommandE7Command
                0x0000000000036872                _ZN6Pinout14EventTriggeredEPvSt4listI14EventParameterSaIS2_EE
                0x000000000003690a                _ZN6Pinout16SupportedComandsEv
                0x0000000000036938                _ZN6Pinout14SuportedEventsEv
                0x0000000000036966                _ZN6Pinout6ToJsonEv
 *fill*         0x00000000000371ef        0x1 90909090
 .text._ZN7CommandC2ERKS_
                0x00000000000371f0      0x148 ./Pinout.o
                0x00000000000371f0                _ZN7CommandC1ERKS_
                0x00000000000371f0                _ZN7CommandC2ERKS_
 .text._ZNSt4listI14EventParameterSaIS0_EEC2ERKS2_
                0x0000000000037338       0xc3 ./Pinout.o
                0x0000000000037338                _ZNSt4listI14EventParameterSaIS0_EEC2ERKS2_
                0x0000000000037338                _ZNSt4listI14EventParameterSaIS0_EEC1ERKS2_
 *fill*         0x00000000000373fb        0x1 90909090
 .text._ZNSt4listI7CommandSaIS0_EEC2ERKS2_
                0x00000000000373fc       0xc3 ./Pinout.o
                0x00000000000373fc                _ZNSt4listI7CommandSaIS0_EEC2ERKS2_
                0x00000000000373fc                _ZNSt4listI7CommandSaIS0_EEC1ERKS2_
 *fill*         0x00000000000374bf        0x1 90909090
 .text._ZNSt4listI5EventSaIS0_EEC2ERKS2_
                0x00000000000374c0       0xc3 ./Pinout.o
                0x00000000000374c0                _ZNSt4listI5EventSaIS0_EEC1ERKS2_
                0x00000000000374c0                _ZNSt4listI5EventSaIS0_EEC2ERKS2_
 *fill*         0x0000000000037583        0x1 90909090
 .text._ZNSt10_List_baseI14EventParameterSaIS0_EEC2ERKS1_
                0x0000000000037584       0x8c ./Pinout.o
                0x0000000000037584                _ZNSt10_List_baseI14EventParameterSaIS0_EEC2ERKS1_
                0x0000000000037584                _ZNSt10_List_baseI14EventParameterSaIS0_EEC1ERKS1_
 .text._ZNSt4listI14EventParameterSaIS0_EE22_M_initialize_dispatchISt20_List_const_iteratorIS0_EEEvT_S6_St12__false_type
                0x0000000000037610       0x59 ./Pinout.o
                0x0000000000037610                _ZNSt4listI14EventParameterSaIS0_EE22_M_initialize_dispatchISt20_List_const_iteratorIS0_EEEvT_S6_St12__false_type
 *fill*         0x0000000000037669        0x1 90909090
 .text._ZNSt10_List_baseI7CommandSaIS0_EEC2ERKS1_
                0x000000000003766a       0x8c ./Pinout.o
                0x000000000003766a                _ZNSt10_List_baseI7CommandSaIS0_EEC2ERKS1_
                0x000000000003766a                _ZNSt10_List_baseI7CommandSaIS0_EEC1ERKS1_
 .text._ZNSt4listI7CommandSaIS0_EE22_M_initialize_dispatchISt20_List_const_iteratorIS0_EEEvT_S6_St12__false_type
                0x00000000000376f6       0x59 ./Pinout.o
                0x00000000000376f6                _ZNSt4listI7CommandSaIS0_EE22_M_initialize_dispatchISt20_List_const_iteratorIS0_EEEvT_S6_St12__false_type
 *fill*         0x000000000003774f        0x1 90909090
 .text._ZNSt10_List_baseI5EventSaIS0_EEC2ERKS1_
                0x0000000000037750       0x8c ./Pinout.o
                0x0000000000037750                _ZNSt10_List_baseI5EventSaIS0_EEC2ERKS1_
                0x0000000000037750                _ZNSt10_List_baseI5EventSaIS0_EEC1ERKS1_
 .text._ZNSt4listI5EventSaIS0_EE22_M_initialize_dispatchISt20_List_const_iteratorIS0_EEEvT_S6_St12__false_type
                0x00000000000377dc       0x59 ./Pinout.o
                0x00000000000377dc                _ZNSt4listI5EventSaIS0_EE22_M_initialize_dispatchISt20_List_const_iteratorIS0_EEEvT_S6_St12__false_type
 *fill*         0x0000000000037835        0x1 90909090
 .text._ZNSaISt10_List_nodeI14EventParameterEEC2IS0_EERKSaIT_E
                0x0000000000037836       0x1e ./Pinout.o
                0x0000000000037836                _ZNSaISt10_List_nodeI14EventParameterEEC1IS0_EERKSaIT_E
                0x0000000000037836                _ZNSaISt10_List_nodeI14EventParameterEEC2IS0_EERKSaIT_E
 .text._ZNSt10_List_baseI14EventParameterSaIS0_EE10_List_implC2ERKSaISt10_List_nodeIS0_EE
                0x0000000000037854       0x3c ./Pinout.o
                0x0000000000037854                _ZNSt10_List_baseI14EventParameterSaIS0_EE10_List_implC1ERKSaISt10_List_nodeIS0_EE
                0x0000000000037854                _ZNSt10_List_baseI14EventParameterSaIS0_EE10_List_implC2ERKSaISt10_List_nodeIS0_EE
 .text._ZNKSt20_List_const_iteratorI14EventParameterEdeEv
                0x0000000000037890       0x15 ./Pinout.o
                0x0000000000037890                _ZNKSt20_List_const_iteratorI14EventParameterEdeEv
 *fill*         0x00000000000378a5        0x1 90909090
 .text._ZNSaISt10_List_nodeI7CommandEEC2IS0_EERKSaIT_E
                0x00000000000378a6       0x1e ./Pinout.o
                0x00000000000378a6                _ZNSaISt10_List_nodeI7CommandEEC1IS0_EERKSaIT_E
                0x00000000000378a6                _ZNSaISt10_List_nodeI7CommandEEC2IS0_EERKSaIT_E
 .text._ZNSt10_List_baseI7CommandSaIS0_EE10_List_implC2ERKSaISt10_List_nodeIS0_EE
                0x00000000000378c4       0x3c ./Pinout.o
                0x00000000000378c4                _ZNSt10_List_baseI7CommandSaIS0_EE10_List_implC1ERKSaISt10_List_nodeIS0_EE
                0x00000000000378c4                _ZNSt10_List_baseI7CommandSaIS0_EE10_List_implC2ERKSaISt10_List_nodeIS0_EE
 .text._ZNSt4listI7CommandSaIS0_EE9push_backERKS0_
                0x0000000000037900       0x34 ./Pinout.o
                0x0000000000037900                _ZNSt4listI7CommandSaIS0_EE9push_backERKS0_
 .text._ZNKSt20_List_const_iteratorI7CommandEdeEv
                0x0000000000037934       0x15 ./Pinout.o
                0x0000000000037934                _ZNKSt20_List_const_iteratorI7CommandEdeEv
 *fill*         0x0000000000037949        0x1 90909090
 .text._ZNSaISt10_List_nodeI5EventEEC2IS0_EERKSaIT_E
                0x000000000003794a       0x1e ./Pinout.o
                0x000000000003794a                _ZNSaISt10_List_nodeI5EventEEC1IS0_EERKSaIT_E
                0x000000000003794a                _ZNSaISt10_List_nodeI5EventEEC2IS0_EERKSaIT_E
 .text._ZNSt10_List_baseI5EventSaIS0_EE10_List_implC2ERKSaISt10_List_nodeIS0_EE
                0x0000000000037968       0x3c ./Pinout.o
                0x0000000000037968                _ZNSt10_List_baseI5EventSaIS0_EE10_List_implC2ERKSaISt10_List_nodeIS0_EE
                0x0000000000037968                _ZNSt10_List_baseI5EventSaIS0_EE10_List_implC1ERKSaISt10_List_nodeIS0_EE
 .text._ZNSt4listI5EventSaIS0_EE9push_backERKS0_
                0x00000000000379a4       0x34 ./Pinout.o
                0x00000000000379a4                _ZNSt4listI5EventSaIS0_EE9push_backERKS0_
 .text._ZNKSt20_List_const_iteratorI5EventEdeEv
                0x00000000000379d8       0x15 ./Pinout.o
                0x00000000000379d8                _ZNKSt20_List_const_iteratorI5EventEdeEv
 *fill*         0x00000000000379ed        0x1 90909090
 .text._ZNSaISt10_List_nodeI14EventParameterEEC2ERKS2_
                0x00000000000379ee       0x25 ./Pinout.o
                0x00000000000379ee                _ZNSaISt10_List_nodeI14EventParameterEEC2ERKS2_
                0x00000000000379ee                _ZNSaISt10_List_nodeI14EventParameterEEC1ERKS2_
 *fill*         0x0000000000037a13        0x1 90909090
 .text._ZNSaISt10_List_nodeI7CommandEEC2ERKS2_
                0x0000000000037a14       0x25 ./Pinout.o
                0x0000000000037a14                _ZNSaISt10_List_nodeI7CommandEEC1ERKS2_
                0x0000000000037a14                _ZNSaISt10_List_nodeI7CommandEEC2ERKS2_
 *fill*         0x0000000000037a39        0x1 90909090
 .text._ZNSt4listI7CommandSaIS0_EE9_M_insertESt14_List_iteratorIS0_ERKS0_
                0x0000000000037a3a       0x40 ./Pinout.o
                0x0000000000037a3a                _ZNSt4listI7CommandSaIS0_EE9_M_insertESt14_List_iteratorIS0_ERKS0_
 .text._ZNSaISt10_List_nodeI5EventEEC2ERKS2_
                0x0000000000037a7a       0x25 ./Pinout.o
                0x0000000000037a7a                _ZNSaISt10_List_nodeI5EventEEC2ERKS2_
                0x0000000000037a7a                _ZNSaISt10_List_nodeI5EventEEC1ERKS2_
 *fill*         0x0000000000037a9f        0x1 90909090
 .text._ZNSt4listI5EventSaIS0_EE9_M_insertESt14_List_iteratorIS0_ERKS0_
                0x0000000000037aa0       0x40 ./Pinout.o
                0x0000000000037aa0                _ZNSt4listI5EventSaIS0_EE9_M_insertESt14_List_iteratorIS0_ERKS0_
 .text._ZN9__gnu_cxx13new_allocatorISt10_List_nodeI14EventParameterEEC2ERKS4_
                0x0000000000037ae0        0xe ./Pinout.o
                0x0000000000037ae0                _ZN9__gnu_cxx13new_allocatorISt10_List_nodeI14EventParameterEEC2ERKS4_
                0x0000000000037ae0                _ZN9__gnu_cxx13new_allocatorISt10_List_nodeI14EventParameterEEC1ERKS4_
 .text._ZN9__gnu_cxx13new_allocatorISt10_List_nodeI7CommandEEC2ERKS4_
                0x0000000000037aee        0xe ./Pinout.o
                0x0000000000037aee                _ZN9__gnu_cxx13new_allocatorISt10_List_nodeI7CommandEEC2ERKS4_
                0x0000000000037aee                _ZN9__gnu_cxx13new_allocatorISt10_List_nodeI7CommandEEC1ERKS4_
 .text._ZNSt4listI7CommandSaIS0_EE14_M_create_nodeERKS0_
                0x0000000000037afc       0xb8 ./Pinout.o
                0x0000000000037afc                _ZNSt4listI7CommandSaIS0_EE14_M_create_nodeERKS0_
 .text._ZN9__gnu_cxx13new_allocatorISt10_List_nodeI5EventEEC2ERKS4_
                0x0000000000037bb4        0xe ./Pinout.o
                0x0000000000037bb4                _ZN9__gnu_cxx13new_allocatorISt10_List_nodeI5EventEEC1ERKS4_
                0x0000000000037bb4                _ZN9__gnu_cxx13new_allocatorISt10_List_nodeI5EventEEC2ERKS4_
 .text._ZNSt4listI5EventSaIS0_EE14_M_create_nodeERKS0_
                0x0000000000037bc2       0xb8 ./Pinout.o
                0x0000000000037bc2                _ZNSt4listI5EventSaIS0_EE14_M_create_nodeERKS0_
 .text._ZNSt10_List_baseI7CommandSaIS0_EE11_M_get_nodeEv
                0x0000000000037c7a       0x24 ./Pinout.o
                0x0000000000037c7a                _ZNSt10_List_baseI7CommandSaIS0_EE11_M_get_nodeEv
 .text._ZN9__gnu_cxx13new_allocatorI7CommandE9constructEPS1_RKS1_
                0x0000000000037c9e       0x67 ./Pinout.o
                0x0000000000037c9e                _ZN9__gnu_cxx13new_allocatorI7CommandE9constructEPS1_RKS1_
 *fill*         0x0000000000037d05        0x1 90909090
 .text._ZNSt10_List_baseI5EventSaIS0_EE11_M_get_nodeEv
                0x0000000000037d06       0x24 ./Pinout.o
                0x0000000000037d06                _ZNSt10_List_baseI5EventSaIS0_EE11_M_get_nodeEv
 .text._ZN9__gnu_cxx13new_allocatorI5EventE9constructEPS1_RKS1_
                0x0000000000037d2a       0x67 ./Pinout.o
                0x0000000000037d2a                _ZN9__gnu_cxx13new_allocatorI5EventE9constructEPS1_RKS1_
 *fill*         0x0000000000037d91        0x1 90909090
 .text._ZN9__gnu_cxx13new_allocatorISt10_List_nodeI7CommandEE8allocateEmPKv
                0x0000000000037d92       0x4c ./Pinout.o
                0x0000000000037d92                _ZN9__gnu_cxx13new_allocatorISt10_List_nodeI7CommandEE8allocateEmPKv
 .text._ZN9__gnu_cxx13new_allocatorISt10_List_nodeI5EventEE8allocateEmPKv
                0x0000000000037dde       0x4c ./Pinout.o
                0x0000000000037dde                _ZN9__gnu_cxx13new_allocatorISt10_List_nodeI5EventEE8allocateEmPKv
 .text._ZNK9__gnu_cxx13new_allocatorISt10_List_nodeI7CommandEE8max_sizeEv
                0x0000000000037e2a       0x14 ./Pinout.o
                0x0000000000037e2a                _ZNK9__gnu_cxx13new_allocatorISt10_List_nodeI7CommandEE8max_sizeEv
 .text._ZNK9__gnu_cxx13new_allocatorISt10_List_nodeI5EventEE8max_sizeEv
                0x0000000000037e3e       0x14 ./Pinout.o
                0x0000000000037e3e                _ZNK9__gnu_cxx13new_allocatorISt10_List_nodeI5EventEE8max_sizeEv
 *fill*         0x0000000000037e52        0x2 90909090
 .text          0x0000000000037e54     0x1895 ./Process.o
                0x0000000000037e54                _ZN7ProcessC1Ev
                0x0000000000037e54                _ZN7ProcessC2Ev
                0x0000000000037e9c                _ZN7ProcessC1Ei
                0x0000000000037e9c                _ZN7ProcessC2Ei
                0x0000000000037ee6                _ZN7ProcessD2Ev
                0x0000000000037ee6                _ZN7ProcessD1Ev
                0x0000000000037f8e                _ZN7ProcessD0Ev
                0x0000000000037fb4                _ZN7Process5StartEP7Program
                0x0000000000038150                _ZN7Process4StopEv
                0x00000000000381f2                _ZN7Process9GetStatusESs
                0x0000000000039540                _ZN7Process11HandleErrorEPvP9ErrorItem
                0x0000000000039618                _ZN7Process10GetProgramEv
                0x000000000003962a                _ZN7Process8GetStateEv
                0x000000000003963c                _ZN7Process2IdEv
                0x000000000003964e                _ZN7Process20RegisterErrorHandlerEP13IErrorHandler
 *fill*         0x00000000000396e9        0x1 90909090
 .text._ZN15DeviceParameterD2Ev
                0x00000000000396ea       0x94 ./Process.o
                0x00000000000396ea                _ZN15DeviceParameterD2Ev
                0x00000000000396ea                _ZN15DeviceParameterD1Ev
 .text._ZN15DeviceParameter13IsInitializedEv
                0x000000000003977e       0x12 ./Process.o
                0x000000000003977e                _ZN15DeviceParameter13IsInitializedEv
 .text._ZN9ErrorItem7ErrorIdEv
                0x0000000000039790       0x11 ./Process.o
                0x0000000000039790                _ZN9ErrorItem7ErrorIdEv
 *fill*         0x00000000000397a1        0x1 90909090
 .text._ZN13IErrorHandlerC2Ev
                0x00000000000397a2       0x1c ./Process.o
                0x00000000000397a2                _ZN13IErrorHandlerC1Ev
                0x00000000000397a2                _ZN13IErrorHandlerC2Ev
 .text._ZNSt4listISsSaISsEED2Ev
                0x00000000000397be       0x1a ./Process.o
                0x00000000000397be                _ZNSt4listISsSaISsEED2Ev
                0x00000000000397be                _ZNSt4listISsSaISsEED1Ev
 .text._ZN15DeviceParameteraSERKS_
                0x00000000000397d8       0xa7 ./Process.o
                0x00000000000397d8                _ZN15DeviceParameteraSERKS_
 *fill*         0x000000000003987f        0x1 90909090
 .text._ZNSt4listISsSaISsEEC2Ev
                0x0000000000039880       0x1a ./Process.o
                0x0000000000039880                _ZNSt4listISsSaISsEEC1Ev
                0x0000000000039880                _ZNSt4listISsSaISsEEC2Ev
 .text._ZNSt10_List_baseISsSaISsEE10_List_implD2Ev
                0x000000000003989a       0x1a ./Process.o
                0x000000000003989a                _ZNSt10_List_baseISsSaISsEE10_List_implD2Ev
                0x000000000003989a                _ZNSt10_List_baseISsSaISsEE10_List_implD1Ev
 .text._ZNSt10_List_baseISsSaISsEED2Ev
                0x00000000000398b4       0x46 ./Process.o
                0x00000000000398b4                _ZNSt10_List_baseISsSaISsEED1Ev
                0x00000000000398b4                _ZNSt10_List_baseISsSaISsEED2Ev
 .text._ZNSt14_List_iteratorIP10BaseDeviceEC2Ev
                0x00000000000398fa       0x15 ./Process.o
                0x00000000000398fa                _ZNSt14_List_iteratorIP10BaseDeviceEC2Ev
                0x00000000000398fa                _ZNSt14_List_iteratorIP10BaseDeviceEC1Ev
 *fill*         0x000000000003990f        0x1 90909090
 .text._ZNSt4listIP10BaseDeviceSaIS1_EE5beginEv
                0x0000000000039910       0x28 ./Process.o
                0x0000000000039910                _ZNSt4listIP10BaseDeviceSaIS1_EE5beginEv
 .text._ZNSt4listIP10BaseDeviceSaIS1_EE3endEv
                0x0000000000039938       0x25 ./Process.o
                0x0000000000039938                _ZNSt4listIP10BaseDeviceSaIS1_EE3endEv
 *fill*         0x000000000003995d        0x1 90909090
 .text._ZNKSt14_List_iteratorIP10BaseDeviceEneERKS2_
                0x000000000003995e       0x22 ./Process.o
                0x000000000003995e                _ZNKSt14_List_iteratorIP10BaseDeviceEneERKS2_
 .text._ZNSt14_List_iteratorIP10BaseDeviceEppEi
                0x0000000000039980       0x2d ./Process.o
                0x0000000000039980                _ZNSt14_List_iteratorIP10BaseDeviceEppEi
 *fill*         0x00000000000399ad        0x1 90909090
 .text._ZNKSt14_List_iteratorIP10BaseDeviceEdeEv
                0x00000000000399ae       0x15 ./Process.o
                0x00000000000399ae                _ZNKSt14_List_iteratorIP10BaseDeviceEdeEv
 *fill*         0x00000000000399c3        0x1 90909090
 .text._ZNSt4listIP15ConnectionPointSaIS1_EE5frontEv
                0x00000000000399c4       0x2a ./Process.o
                0x00000000000399c4                _ZNSt4listIP15ConnectionPointSaIS1_EE5frontEv
 .text._ZNSt4listIP15ConnectionPointSaIS1_EEC2Ev
                0x00000000000399ee       0x1a ./Process.o
                0x00000000000399ee                _ZNSt4listIP15ConnectionPointSaIS1_EEC1Ev
                0x00000000000399ee                _ZNSt4listIP15ConnectionPointSaIS1_EEC2Ev
 .text._ZNSt4listIP15ConnectionPointSaIS1_EEaSERKS3_
                0x0000000000039a08      0x12b ./Process.o
                0x0000000000039a08                _ZNSt4listIP15ConnectionPointSaIS1_EEaSERKS3_
 *fill*         0x0000000000039b33        0x1 90909090
 .text._ZNSt10_List_baseISsSaISsEEC2Ev
                0x0000000000039b34       0x48 ./Process.o
                0x0000000000039b34                _ZNSt10_List_baseISsSaISsEEC2Ev
                0x0000000000039b34                _ZNSt10_List_baseISsSaISsEEC1Ev
 .text._ZNSaISt10_List_nodeISsEED2Ev
                0x0000000000039b7c       0x1a ./Process.o
                0x0000000000039b7c                _ZNSaISt10_List_nodeISsEED2Ev
                0x0000000000039b7c                _ZNSaISt10_List_nodeISsEED1Ev
 .text._ZNSt10_List_baseISsSaISsEE8_M_clearEv
                0x0000000000039b96       0xb3 ./Process.o
                0x0000000000039b96                _ZNSt10_List_baseISsSaISsEE8_M_clearEv
 *fill*         0x0000000000039c49        0x1 90909090
 .text._ZNSt14_List_iteratorIP10BaseDeviceEC2EPNSt8__detail15_List_node_baseE
                0x0000000000039c4a       0x19 ./Process.o
                0x0000000000039c4a                _ZNSt14_List_iteratorIP10BaseDeviceEC2EPNSt8__detail15_List_node_baseE
                0x0000000000039c4a                _ZNSt14_List_iteratorIP10BaseDeviceEC1EPNSt8__detail15_List_node_baseE
 *fill*         0x0000000000039c63        0x1 90909090
 .text._ZNSt10_List_baseIP15ConnectionPointSaIS1_EEC2Ev
                0x0000000000039c64       0x48 ./Process.o
                0x0000000000039c64                _ZNSt10_List_baseIP15ConnectionPointSaIS1_EEC2Ev
                0x0000000000039c64                _ZNSt10_List_baseIP15ConnectionPointSaIS1_EEC1Ev
 .text._ZNSt14_List_iteratorIP15ConnectionPointEppEv
                0x0000000000039cac       0x1f ./Process.o
                0x0000000000039cac                _ZNSt14_List_iteratorIP15ConnectionPointEppEv
 *fill*         0x0000000000039ccb        0x1 90909090
 .text._ZNKSt20_List_const_iteratorIP15ConnectionPointEeqERKS2_
                0x0000000000039ccc       0x22 ./Process.o
                0x0000000000039ccc                _ZNKSt20_List_const_iteratorIP15ConnectionPointEeqERKS2_
 .text._ZNSt4listIP15ConnectionPointSaIS1_EE5eraseESt14_List_iteratorIS1_ES5_
                0x0000000000039cee       0x4a ./Process.o
                0x0000000000039cee                _ZNSt4listIP15ConnectionPointSaIS1_EE5eraseESt14_List_iteratorIS1_ES5_
 .text._ZNSt4listIP15ConnectionPointSaIS1_EE6insertISt20_List_const_iteratorIS1_EEEvSt14_List_iteratorIS1_ET_S9_
                0x0000000000039d38       0xb9 ./Process.o
                0x0000000000039d38                _ZNSt4listIP15ConnectionPointSaIS1_EE6insertISt20_List_const_iteratorIS1_EEEvSt14_List_iteratorIS1_ET_S9_
 *fill*         0x0000000000039df1        0x1 90909090
 .text._ZNSt10_List_baseISsSaISsEE10_List_implC2Ev
                0x0000000000039df2       0x31 ./Process.o
                0x0000000000039df2                _ZNSt10_List_baseISsSaISsEE10_List_implC1Ev
                0x0000000000039df2                _ZNSt10_List_baseISsSaISsEE10_List_implC2Ev
 *fill*         0x0000000000039e23        0x1 90909090
 .text._ZNSt10_List_baseISsSaISsEE7_M_initEv
                0x0000000000039e24       0x21 ./Process.o
                0x0000000000039e24                _ZNSt10_List_baseISsSaISsEE7_M_initEv
 *fill*         0x0000000000039e45        0x1 90909090
 .text._ZN9__gnu_cxx13new_allocatorISt10_List_nodeISsEED2Ev
                0x0000000000039e46        0xa ./Process.o
                0x0000000000039e46                _ZN9__gnu_cxx13new_allocatorISt10_List_nodeISsEED2Ev
                0x0000000000039e46                _ZN9__gnu_cxx13new_allocatorISt10_List_nodeISsEED1Ev
 .text._ZNKSt10_List_baseISsSaISsEE19_M_get_Tp_allocatorEv
                0x0000000000039e50       0x34 ./Process.o
                0x0000000000039e50                _ZNKSt10_List_baseISsSaISsEE19_M_get_Tp_allocatorEv
 .text._ZNSaISsED2Ev
                0x0000000000039e84       0x1a ./Process.o
                0x0000000000039e84                _ZNSaISsED1Ev
                0x0000000000039e84                _ZNSaISsED2Ev
 .text._ZSt11__addressofISsEPT_RS0_
                0x0000000000039e9e        0xe ./Process.o
                0x0000000000039e9e                _ZSt11__addressofISsEPT_RS0_
 .text._ZN9__gnu_cxx13new_allocatorISsE7destroyEPSs
                0x0000000000039eac       0x1e ./Process.o
                0x0000000000039eac                _ZN9__gnu_cxx13new_allocatorISsE7destroyEPSs
 .text._ZNSt10_List_baseISsSaISsEE11_M_put_nodeEPSt10_List_nodeISsE
                0x0000000000039eca       0x2a ./Process.o
                0x0000000000039eca                _ZNSt10_List_baseISsSaISsEE11_M_put_nodeEPSt10_List_nodeISsE
 .text._ZNSt10_List_baseIP15ConnectionPointSaIS1_EE10_List_implC2Ev
                0x0000000000039ef4       0x31 ./Process.o
                0x0000000000039ef4                _ZNSt10_List_baseIP15ConnectionPointSaIS1_EE10_List_implC2Ev
                0x0000000000039ef4                _ZNSt10_List_baseIP15ConnectionPointSaIS1_EE10_List_implC1Ev
 *fill*         0x0000000000039f25        0x1 90909090
 .text._ZNSt4listIP15ConnectionPointSaIS1_EE5eraseESt14_List_iteratorIS1_E
                0x0000000000039f26       0x3f ./Process.o
                0x0000000000039f26                _ZNSt4listIP15ConnectionPointSaIS1_EE5eraseESt14_List_iteratorIS1_E
 *fill*         0x0000000000039f65        0x1 90909090
 .text._ZNSt10_List_baseIP15ConnectionPointSaIS1_EE21_M_get_Node_allocatorEv
                0x0000000000039f66        0xe ./Process.o
                0x0000000000039f66                _ZNSt10_List_baseIP15ConnectionPointSaIS1_EE21_M_get_Node_allocatorEv
 .text._ZNSt4listIP15ConnectionPointSaIS1_EEC2ISt20_List_const_iteratorIS1_EEET_S7_RKS2_
                0x0000000000039f74       0x69 ./Process.o
                0x0000000000039f74                _ZNSt4listIP15ConnectionPointSaIS1_EEC2ISt20_List_const_iteratorIS1_EEET_S7_RKS2_
                0x0000000000039f74                _ZNSt4listIP15ConnectionPointSaIS1_EEC1ISt20_List_const_iteratorIS1_EEET_S7_RKS2_
 *fill*         0x0000000000039fdd        0x1 90909090
 .text._ZNSt4listIP15ConnectionPointSaIS1_EE6spliceESt14_List_iteratorIS1_ERS3_
                0x0000000000039fde       0x73 ./Process.o
                0x0000000000039fde                _ZNSt4listIP15ConnectionPointSaIS1_EE6spliceESt14_List_iteratorIS1_ERS3_
 *fill*         0x000000000003a051        0x1 90909090
 .text._ZNSaISt10_List_nodeISsEEC2Ev
                0x000000000003a052       0x1a ./Process.o
                0x000000000003a052                _ZNSaISt10_List_nodeISsEEC1Ev
                0x000000000003a052                _ZNSaISt10_List_nodeISsEEC2Ev
 .text._ZNKSt10_List_baseISsSaISsEE21_M_get_Node_allocatorEv
                0x000000000003a06c        0xe ./Process.o
                0x000000000003a06c                _ZNKSt10_List_baseISsSaISsEE21_M_get_Node_allocatorEv
 .text._ZNSaISsEC2ISt10_List_nodeISsEEERKSaIT_E
                0x000000000003a07a       0x1e ./Process.o
                0x000000000003a07a                _ZNSaISsEC2ISt10_List_nodeISsEEERKSaIT_E
                0x000000000003a07a                _ZNSaISsEC1ISt10_List_nodeISsEEERKSaIT_E
 .text._ZN9__gnu_cxx13new_allocatorISsED2Ev
                0x000000000003a098        0xa ./Process.o
                0x000000000003a098                _ZN9__gnu_cxx13new_allocatorISsED1Ev
                0x000000000003a098                _ZN9__gnu_cxx13new_allocatorISsED2Ev
 .text._ZN9__gnu_cxx13new_allocatorISt10_List_nodeISsEE10deallocateEPS2_m
                0x000000000003a0a2       0x22 ./Process.o
                0x000000000003a0a2                _ZN9__gnu_cxx13new_allocatorISt10_List_nodeISsEE10deallocateEPS2_m
 .text._ZNSaISt10_List_nodeIP15ConnectionPointEEC2Ev
                0x000000000003a0c4       0x1a ./Process.o
                0x000000000003a0c4                _ZNSaISt10_List_nodeIP15ConnectionPointEEC2Ev
                0x000000000003a0c4                _ZNSaISt10_List_nodeIP15ConnectionPointEEC1Ev
 .text._ZNSt4listIP15ConnectionPointSaIS1_EE8_M_eraseESt14_List_iteratorIS1_E
                0x000000000003a0de       0x80 ./Process.o
                0x000000000003a0de                _ZNSt4listIP15ConnectionPointSaIS1_EE8_M_eraseESt14_List_iteratorIS1_E
 .text._ZNKSt4listIP15ConnectionPointSaIS1_EE5emptyEv
                0x000000000003a15e       0x1b ./Process.o
                0x000000000003a15e                _ZNKSt4listIP15ConnectionPointSaIS1_EE5emptyEv
 *fill*         0x000000000003a179        0x1 90909090
 .text._ZNSt4listIP15ConnectionPointSaIS1_EE25_M_check_equal_allocatorsERS3_
                0x000000000003a17a       0x4e ./Process.o
                0x000000000003a17a                _ZNSt4listIP15ConnectionPointSaIS1_EE25_M_check_equal_allocatorsERS3_
 .text._ZNSt4listIP15ConnectionPointSaIS1_EE11_M_transferESt14_List_iteratorIS1_ES5_S5_
                0x000000000003a1c8       0x31 ./Process.o
                0x000000000003a1c8                _ZNSt4listIP15ConnectionPointSaIS1_EE11_M_transferESt14_List_iteratorIS1_ES5_S5_
 *fill*         0x000000000003a1f9        0x1 90909090
 .text._ZN9__gnu_cxx13new_allocatorISt10_List_nodeISsEEC2Ev
                0x000000000003a1fa        0xa ./Process.o
                0x000000000003a1fa                _ZN9__gnu_cxx13new_allocatorISt10_List_nodeISsEEC1Ev
                0x000000000003a1fa                _ZN9__gnu_cxx13new_allocatorISt10_List_nodeISsEEC2Ev
 .text._ZN9__gnu_cxx13new_allocatorISsEC2Ev
                0x000000000003a204        0xa ./Process.o
                0x000000000003a204                _ZN9__gnu_cxx13new_allocatorISsEC1Ev
                0x000000000003a204                _ZN9__gnu_cxx13new_allocatorISsEC2Ev
 .text._ZNSt11__alloc_neqISaISt10_List_nodeIP15ConnectionPointEELb1EE8_S_do_itERKS4_S7_
                0x000000000003a20e       0x13 ./Process.o
                0x000000000003a20e                _ZNSt11__alloc_neqISaISt10_List_nodeIP15ConnectionPointEELb1EE8_S_do_itERKS4_S7_
 *fill*         0x000000000003a221        0x3 90909090
 .text          0x000000000003a224      0x69d ./Program.o
                0x000000000003a224                _ZN7ProgramC1Ev
                0x000000000003a224                _ZN7ProgramC2Ev
                0x000000000003a2fc                _ZN7ProgramC1EiSsSs
                0x000000000003a2fc                _ZN7ProgramC2EiSsSs
                0x000000000003a444                _ZN7ProgramD2Ev
                0x000000000003a444                _ZN7ProgramD1Ev
                0x000000000003a6a0                _ZN7ProgramD0Ev
                0x000000000003a6c6                _ZN7Program2IdEv
                0x000000000003a6d8                _ZN7Program4NameEv
                0x000000000003a706                _ZN7Program11DescriptionEv
                0x000000000003a734                _ZN7Program7DevicesEv
                0x000000000003a746                _ZN7Program9AddDeviceEP10BaseDevice
                0x000000000003a770                _ZN7Program9GetDeviceEi
                0x000000000003a816                _ZN7Program5WiresEv
                0x000000000003a828                _ZN7Program7AddWireEP4Wire
                0x000000000003a852                _ZN7Program9PowerWireEv
 *fill*         0x000000000003a8c1        0x1 90909090
 .text._ZNSt4listIP10BaseDeviceSaIS1_EED2Ev
                0x000000000003a8c2       0x1a ./Program.o
                0x000000000003a8c2                _ZNSt4listIP10BaseDeviceSaIS1_EED2Ev
                0x000000000003a8c2                _ZNSt4listIP10BaseDeviceSaIS1_EED1Ev
 .text._ZNSt4listIP4WireSaIS1_EED2Ev
                0x000000000003a8dc       0x1a ./Program.o
                0x000000000003a8dc                _ZNSt4listIP4WireSaIS1_EED1Ev
                0x000000000003a8dc                _ZNSt4listIP4WireSaIS1_EED2Ev
 .text._ZNSt4listIP10BaseDeviceSaIS1_EEC2Ev
                0x000000000003a8f6       0x1a ./Program.o
                0x000000000003a8f6                _ZNSt4listIP10BaseDeviceSaIS1_EEC2Ev
                0x000000000003a8f6                _ZNSt4listIP10BaseDeviceSaIS1_EEC1Ev
 .text._ZNSt4listIP4WireSaIS1_EEC2Ev
                0x000000000003a910       0x1a ./Program.o
                0x000000000003a910                _ZNSt4listIP4WireSaIS1_EEC2Ev
                0x000000000003a910                _ZNSt4listIP4WireSaIS1_EEC1Ev
 .text._ZNSt10_List_baseIP10BaseDeviceSaIS1_EE10_List_implD2Ev
                0x000000000003a92a       0x1a ./Program.o
                0x000000000003a92a                _ZNSt10_List_baseIP10BaseDeviceSaIS1_EE10_List_implD1Ev
                0x000000000003a92a                _ZNSt10_List_baseIP10BaseDeviceSaIS1_EE10_List_implD2Ev
 .text._ZNSt10_List_baseIP10BaseDeviceSaIS1_EED2Ev
                0x000000000003a944       0x46 ./Program.o
                0x000000000003a944                _ZNSt10_List_baseIP10BaseDeviceSaIS1_EED2Ev
                0x000000000003a944                _ZNSt10_List_baseIP10BaseDeviceSaIS1_EED1Ev
 .text._ZNSt14_List_iteratorIP4WireEC2Ev
                0x000000000003a98a       0x15 ./Program.o
                0x000000000003a98a                _ZNSt14_List_iteratorIP4WireEC1Ev
                0x000000000003a98a                _ZNSt14_List_iteratorIP4WireEC2Ev
 *fill*         0x000000000003a99f        0x1 90909090
 .text._ZNSt4listIP4WireSaIS1_EE5beginEv
                0x000000000003a9a0       0x28 ./Program.o
                0x000000000003a9a0                _ZNSt4listIP4WireSaIS1_EE5beginEv
 .text._ZNSt4listIP4WireSaIS1_EE3endEv
                0x000000000003a9c8       0x25 ./Program.o
                0x000000000003a9c8                _ZNSt4listIP4WireSaIS1_EE3endEv
 *fill*         0x000000000003a9ed        0x1 90909090
 .text._ZNKSt14_List_iteratorIP4WireEneERKS2_
                0x000000000003a9ee       0x22 ./Program.o
                0x000000000003a9ee                _ZNKSt14_List_iteratorIP4WireEneERKS2_
 .text._ZNSt14_List_iteratorIP4WireEppEi
                0x000000000003aa10       0x2d ./Program.o
                0x000000000003aa10                _ZNSt14_List_iteratorIP4WireEppEi
 *fill*         0x000000000003aa3d        0x1 90909090
 .text._ZNKSt14_List_iteratorIP4WireEdeEv
                0x000000000003aa3e       0x15 ./Program.o
                0x000000000003aa3e                _ZNKSt14_List_iteratorIP4WireEdeEv
 *fill*         0x000000000003aa53        0x1 90909090
 .text._ZNSt10_List_baseIP4WireSaIS1_EE10_List_implD2Ev
                0x000000000003aa54       0x1a ./Program.o
                0x000000000003aa54                _ZNSt10_List_baseIP4WireSaIS1_EE10_List_implD1Ev
                0x000000000003aa54                _ZNSt10_List_baseIP4WireSaIS1_EE10_List_implD2Ev
 .text._ZNSt10_List_baseIP4WireSaIS1_EED2Ev
                0x000000000003aa6e       0x46 ./Program.o
                0x000000000003aa6e                _ZNSt10_List_baseIP4WireSaIS1_EED2Ev
                0x000000000003aa6e                _ZNSt10_List_baseIP4WireSaIS1_EED1Ev
 .text._ZNSt4listIP10BaseDeviceSaIS1_EE9push_backERKS1_
                0x000000000003aab4       0x34 ./Program.o
                0x000000000003aab4                _ZNSt4listIP10BaseDeviceSaIS1_EE9push_backERKS1_
 .text._ZNSt4listIP4WireSaIS1_EE9push_backERKS1_
                0x000000000003aae8       0x34 ./Program.o
                0x000000000003aae8                _ZNSt4listIP4WireSaIS1_EE9push_backERKS1_
 .text._ZNSt10_List_baseIP10BaseDeviceSaIS1_EEC2Ev
                0x000000000003ab1c       0x48 ./Program.o
                0x000000000003ab1c                _ZNSt10_List_baseIP10BaseDeviceSaIS1_EEC1Ev
                0x000000000003ab1c                _ZNSt10_List_baseIP10BaseDeviceSaIS1_EEC2Ev
 .text._ZNSt10_List_baseIP4WireSaIS1_EEC2Ev
                0x000000000003ab64       0x48 ./Program.o
                0x000000000003ab64                _ZNSt10_List_baseIP4WireSaIS1_EEC1Ev
                0x000000000003ab64                _ZNSt10_List_baseIP4WireSaIS1_EEC2Ev
 .text._ZNSaISt10_List_nodeIP10BaseDeviceEED2Ev
                0x000000000003abac       0x1a ./Program.o
                0x000000000003abac                _ZNSaISt10_List_nodeIP10BaseDeviceEED2Ev
                0x000000000003abac                _ZNSaISt10_List_nodeIP10BaseDeviceEED1Ev
 .text._ZNSt10_List_baseIP10BaseDeviceSaIS1_EE8_M_clearEv
                0x000000000003abc6       0xb3 ./Program.o
                0x000000000003abc6                _ZNSt10_List_baseIP10BaseDeviceSaIS1_EE8_M_clearEv
 *fill*         0x000000000003ac79        0x1 90909090
 .text._ZNSt14_List_iteratorIP4WireEC2EPNSt8__detail15_List_node_baseE
                0x000000000003ac7a       0x19 ./Program.o
                0x000000000003ac7a                _ZNSt14_List_iteratorIP4WireEC1EPNSt8__detail15_List_node_baseE
                0x000000000003ac7a                _ZNSt14_List_iteratorIP4WireEC2EPNSt8__detail15_List_node_baseE
 *fill*         0x000000000003ac93        0x1 90909090
 .text._ZNSaISt10_List_nodeIP4WireEED2Ev
                0x000000000003ac94       0x1a ./Program.o
                0x000000000003ac94                _ZNSaISt10_List_nodeIP4WireEED1Ev
                0x000000000003ac94                _ZNSaISt10_List_nodeIP4WireEED2Ev
 .text._ZNSt10_List_baseIP4WireSaIS1_EE8_M_clearEv
                0x000000000003acae       0xb3 ./Program.o
                0x000000000003acae                _ZNSt10_List_baseIP4WireSaIS1_EE8_M_clearEv
 *fill*         0x000000000003ad61        0x1 90909090
 .text._ZNSt4listIP10BaseDeviceSaIS1_EE9_M_insertESt14_List_iteratorIS1_ERKS1_
                0x000000000003ad62       0x40 ./Program.o
                0x000000000003ad62                _ZNSt4listIP10BaseDeviceSaIS1_EE9_M_insertESt14_List_iteratorIS1_ERKS1_
 .text._ZNSt4listIP4WireSaIS1_EE9_M_insertESt14_List_iteratorIS1_ERKS1_
                0x000000000003ada2       0x40 ./Program.o
                0x000000000003ada2                _ZNSt4listIP4WireSaIS1_EE9_M_insertESt14_List_iteratorIS1_ERKS1_
 .text._ZNSt10_List_baseIP10BaseDeviceSaIS1_EE10_List_implC2Ev
                0x000000000003ade2       0x31 ./Program.o
                0x000000000003ade2                _ZNSt10_List_baseIP10BaseDeviceSaIS1_EE10_List_implC2Ev
                0x000000000003ade2                _ZNSt10_List_baseIP10BaseDeviceSaIS1_EE10_List_implC1Ev
 *fill*         0x000000000003ae13        0x1 90909090
 .text._ZNSt10_List_baseIP10BaseDeviceSaIS1_EE7_M_initEv
                0x000000000003ae14       0x21 ./Program.o
                0x000000000003ae14                _ZNSt10_List_baseIP10BaseDeviceSaIS1_EE7_M_initEv
 *fill*         0x000000000003ae35        0x1 90909090
 .text._ZNSt10_List_baseIP4WireSaIS1_EE10_List_implC2Ev
                0x000000000003ae36       0x31 ./Program.o
                0x000000000003ae36                _ZNSt10_List_baseIP4WireSaIS1_EE10_List_implC2Ev
                0x000000000003ae36                _ZNSt10_List_baseIP4WireSaIS1_EE10_List_implC1Ev
 *fill*         0x000000000003ae67        0x1 90909090
 .text._ZNSt10_List_baseIP4WireSaIS1_EE7_M_initEv
                0x000000000003ae68       0x21 ./Program.o
                0x000000000003ae68                _ZNSt10_List_baseIP4WireSaIS1_EE7_M_initEv
 *fill*         0x000000000003ae89        0x1 90909090
 .text._ZN9__gnu_cxx13new_allocatorISt10_List_nodeIP10BaseDeviceEED2Ev
                0x000000000003ae8a        0xa ./Program.o
                0x000000000003ae8a                _ZN9__gnu_cxx13new_allocatorISt10_List_nodeIP10BaseDeviceEED2Ev
                0x000000000003ae8a                _ZN9__gnu_cxx13new_allocatorISt10_List_nodeIP10BaseDeviceEED1Ev
 .text._ZNKSt10_List_baseIP10BaseDeviceSaIS1_EE19_M_get_Tp_allocatorEv
                0x000000000003ae94       0x34 ./Program.o
                0x000000000003ae94                _ZNKSt10_List_baseIP10BaseDeviceSaIS1_EE19_M_get_Tp_allocatorEv
 .text._ZNSaIP10BaseDeviceED2Ev
                0x000000000003aec8       0x1a ./Program.o
                0x000000000003aec8                _ZNSaIP10BaseDeviceED2Ev
                0x000000000003aec8                _ZNSaIP10BaseDeviceED1Ev
 .text._ZSt11__addressofIP10BaseDeviceEPT_RS2_
                0x000000000003aee2        0xe ./Program.o
                0x000000000003aee2                _ZSt11__addressofIP10BaseDeviceEPT_RS2_
 .text._ZN9__gnu_cxx13new_allocatorIP10BaseDeviceE7destroyEPS2_
                0x000000000003aef0        0xe ./Program.o
                0x000000000003aef0                _ZN9__gnu_cxx13new_allocatorIP10BaseDeviceE7destroyEPS2_
 .text._ZNSt10_List_baseIP10BaseDeviceSaIS1_EE11_M_put_nodeEPSt10_List_nodeIS1_E
                0x000000000003aefe       0x2a ./Program.o
                0x000000000003aefe                _ZNSt10_List_baseIP10BaseDeviceSaIS1_EE11_M_put_nodeEPSt10_List_nodeIS1_E
 .text._ZN9__gnu_cxx13new_allocatorISt10_List_nodeIP4WireEED2Ev
                0x000000000003af28        0xa ./Program.o
                0x000000000003af28                _ZN9__gnu_cxx13new_allocatorISt10_List_nodeIP4WireEED1Ev
                0x000000000003af28                _ZN9__gnu_cxx13new_allocatorISt10_List_nodeIP4WireEED2Ev
 .text._ZNKSt10_List_baseIP4WireSaIS1_EE19_M_get_Tp_allocatorEv
                0x000000000003af32       0x34 ./Program.o
                0x000000000003af32                _ZNKSt10_List_baseIP4WireSaIS1_EE19_M_get_Tp_allocatorEv
 .text._ZNSaIP4WireED2Ev
                0x000000000003af66       0x1a ./Program.o
                0x000000000003af66                _ZNSaIP4WireED2Ev
                0x000000000003af66                _ZNSaIP4WireED1Ev
 .text._ZSt11__addressofIP4WireEPT_RS2_
                0x000000000003af80        0xe ./Program.o
                0x000000000003af80                _ZSt11__addressofIP4WireEPT_RS2_
 .text._ZN9__gnu_cxx13new_allocatorIP4WireE7destroyEPS2_
                0x000000000003af8e        0xe ./Program.o
                0x000000000003af8e                _ZN9__gnu_cxx13new_allocatorIP4WireE7destroyEPS2_
 .text._ZNSt10_List_baseIP4WireSaIS1_EE11_M_put_nodeEPSt10_List_nodeIS1_E
                0x000000000003af9c       0x2a ./Program.o
                0x000000000003af9c                _ZNSt10_List_baseIP4WireSaIS1_EE11_M_put_nodeEPSt10_List_nodeIS1_E
 .text._ZNSt4listIP10BaseDeviceSaIS1_EE14_M_create_nodeERKS1_
                0x000000000003afc6       0xb8 ./Program.o
                0x000000000003afc6                _ZNSt4listIP10BaseDeviceSaIS1_EE14_M_create_nodeERKS1_
 .text._ZNSt4listIP4WireSaIS1_EE14_M_create_nodeERKS1_
                0x000000000003b07e       0xb8 ./Program.o
                0x000000000003b07e                _ZNSt4listIP4WireSaIS1_EE14_M_create_nodeERKS1_
 .text._ZNSaISt10_List_nodeIP10BaseDeviceEEC2Ev
                0x000000000003b136       0x1a ./Program.o
                0x000000000003b136                _ZNSaISt10_List_nodeIP10BaseDeviceEEC1Ev
                0x000000000003b136                _ZNSaISt10_List_nodeIP10BaseDeviceEEC2Ev
 .text._ZNSaISt10_List_nodeIP4WireEEC2Ev
                0x000000000003b150       0x1a ./Program.o
                0x000000000003b150                _ZNSaISt10_List_nodeIP4WireEEC1Ev
                0x000000000003b150                _ZNSaISt10_List_nodeIP4WireEEC2Ev
 .text._ZNKSt10_List_baseIP10BaseDeviceSaIS1_EE21_M_get_Node_allocatorEv
                0x000000000003b16a        0xe ./Program.o
                0x000000000003b16a                _ZNKSt10_List_baseIP10BaseDeviceSaIS1_EE21_M_get_Node_allocatorEv
 .text._ZNSaIP10BaseDeviceEC2ISt10_List_nodeIS0_EEERKSaIT_E
                0x000000000003b178       0x1e ./Program.o
                0x000000000003b178                _ZNSaIP10BaseDeviceEC1ISt10_List_nodeIS0_EEERKSaIT_E
                0x000000000003b178                _ZNSaIP10BaseDeviceEC2ISt10_List_nodeIS0_EEERKSaIT_E
 .text._ZN9__gnu_cxx13new_allocatorIP10BaseDeviceED2Ev
                0x000000000003b196        0xa ./Program.o
                0x000000000003b196                _ZN9__gnu_cxx13new_allocatorIP10BaseDeviceED1Ev
                0x000000000003b196                _ZN9__gnu_cxx13new_allocatorIP10BaseDeviceED2Ev
 .text._ZN9__gnu_cxx13new_allocatorISt10_List_nodeIP10BaseDeviceEE10deallocateEPS4_m
                0x000000000003b1a0       0x22 ./Program.o
                0x000000000003b1a0                _ZN9__gnu_cxx13new_allocatorISt10_List_nodeIP10BaseDeviceEE10deallocateEPS4_m
 .text._ZNKSt10_List_baseIP4WireSaIS1_EE21_M_get_Node_allocatorEv
                0x000000000003b1c2        0xe ./Program.o
                0x000000000003b1c2                _ZNKSt10_List_baseIP4WireSaIS1_EE21_M_get_Node_allocatorEv
 .text._ZNSaIP4WireEC2ISt10_List_nodeIS0_EEERKSaIT_E
                0x000000000003b1d0       0x1e ./Program.o
                0x000000000003b1d0                _ZNSaIP4WireEC1ISt10_List_nodeIS0_EEERKSaIT_E
                0x000000000003b1d0                _ZNSaIP4WireEC2ISt10_List_nodeIS0_EEERKSaIT_E
 .text._ZN9__gnu_cxx13new_allocatorIP4WireED2Ev
                0x000000000003b1ee        0xa ./Program.o
                0x000000000003b1ee                _ZN9__gnu_cxx13new_allocatorIP4WireED2Ev
                0x000000000003b1ee                _ZN9__gnu_cxx13new_allocatorIP4WireED1Ev
 .text._ZN9__gnu_cxx13new_allocatorISt10_List_nodeIP4WireEE10deallocateEPS4_m
                0x000000000003b1f8       0x22 ./Program.o
                0x000000000003b1f8                _ZN9__gnu_cxx13new_allocatorISt10_List_nodeIP4WireEE10deallocateEPS4_m
 .text._ZNSt10_List_baseIP10BaseDeviceSaIS1_EE11_M_get_nodeEv
                0x000000000003b21a       0x24 ./Program.o
                0x000000000003b21a                _ZNSt10_List_baseIP10BaseDeviceSaIS1_EE11_M_get_nodeEv
 .text._ZN9__gnu_cxx13new_allocatorIP10BaseDeviceE9constructEPS2_RKS2_
                0x000000000003b23e       0x36 ./Program.o
                0x000000000003b23e                _ZN9__gnu_cxx13new_allocatorIP10BaseDeviceE9constructEPS2_RKS2_
 .text._ZNSt10_List_baseIP4WireSaIS1_EE11_M_get_nodeEv
                0x000000000003b274       0x24 ./Program.o
                0x000000000003b274                _ZNSt10_List_baseIP4WireSaIS1_EE11_M_get_nodeEv
 .text._ZN9__gnu_cxx13new_allocatorIP4WireE9constructEPS2_RKS2_
                0x000000000003b298       0x36 ./Program.o
                0x000000000003b298                _ZN9__gnu_cxx13new_allocatorIP4WireE9constructEPS2_RKS2_
 .text._ZN9__gnu_cxx13new_allocatorISt10_List_nodeIP10BaseDeviceEEC2Ev
                0x000000000003b2ce        0xa ./Program.o
                0x000000000003b2ce                _ZN9__gnu_cxx13new_allocatorISt10_List_nodeIP10BaseDeviceEEC1Ev
                0x000000000003b2ce                _ZN9__gnu_cxx13new_allocatorISt10_List_nodeIP10BaseDeviceEEC2Ev
 .text._ZN9__gnu_cxx13new_allocatorISt10_List_nodeIP4WireEEC2Ev
                0x000000000003b2d8        0xa ./Program.o
                0x000000000003b2d8                _ZN9__gnu_cxx13new_allocatorISt10_List_nodeIP4WireEEC2Ev
                0x000000000003b2d8                _ZN9__gnu_cxx13new_allocatorISt10_List_nodeIP4WireEEC1Ev
 .text._ZN9__gnu_cxx13new_allocatorIP10BaseDeviceEC2Ev
                0x000000000003b2e2        0xa ./Program.o
                0x000000000003b2e2                _ZN9__gnu_cxx13new_allocatorIP10BaseDeviceEC1Ev
                0x000000000003b2e2                _ZN9__gnu_cxx13new_allocatorIP10BaseDeviceEC2Ev
 .text._ZN9__gnu_cxx13new_allocatorIP4WireEC2Ev
                0x000000000003b2ec        0xa ./Program.o
                0x000000000003b2ec                _ZN9__gnu_cxx13new_allocatorIP4WireEC2Ev
                0x000000000003b2ec                _ZN9__gnu_cxx13new_allocatorIP4WireEC1Ev
 .text._ZN9__gnu_cxx13new_allocatorISt10_List_nodeIP10BaseDeviceEE8allocateEmPKv
                0x000000000003b2f6       0x4b ./Program.o
                0x000000000003b2f6                _ZN9__gnu_cxx13new_allocatorISt10_List_nodeIP10BaseDeviceEE8allocateEmPKv
 *fill*         0x000000000003b341        0x1 90909090
 .text._ZN9__gnu_cxx13new_allocatorISt10_List_nodeIP4WireEE8allocateEmPKv
                0x000000000003b342       0x4b ./Program.o
                0x000000000003b342                _ZN9__gnu_cxx13new_allocatorISt10_List_nodeIP4WireEE8allocateEmPKv
 *fill*         0x000000000003b38d        0x1 90909090
 .text._ZNK9__gnu_cxx13new_allocatorISt10_List_nodeIP10BaseDeviceEE8max_sizeEv
                0x000000000003b38e       0x14 ./Program.o
                0x000000000003b38e                _ZNK9__gnu_cxx13new_allocatorISt10_List_nodeIP10BaseDeviceEE8max_sizeEv
 .text._ZNK9__gnu_cxx13new_allocatorISt10_List_nodeIP4WireEE8max_sizeEv
                0x000000000003b3a2       0x14 ./Program.o
                0x000000000003b3a2                _ZNK9__gnu_cxx13new_allocatorISt10_List_nodeIP4WireEE8max_sizeEv
 *fill*         0x000000000003b3b6        0x2 90909090
 .text          0x000000000003b3b8      0x77b ./Wire.o
                0x000000000003b3b8                _ZN4WireC1Ev
                0x000000000003b3b8                _ZN4WireC2Ev
                0x000000000003b444                _ZN4WireD2Ev
                0x000000000003b444                _ZN4WireD1Ev
                0x000000000003b560                _ZN4WireD0Ev
                0x000000000003b586                _ZN4Wire16ConnectionPointsEv
                0x000000000003b598                _ZN4Wire6AttachEP15ConnectionPoint
                0x000000000003b62c                _ZN4Wire6DetachEP15ConnectionPoint
                0x000000000003b6c0                _ZN4Wire20InputPinValueChangedEPv
                0x000000000003b750                _ZN4Wire8SetValueEPv16AgilartDataTypes
                0x000000000003b88c                _ZThn8_N4Wire7RefreshEPv
                0x000000000003b892                _ZN4Wire7RefreshEPv
                0x000000000003b9f8                _ZN4Wire5CloneEv
 .text._ZSt4findISt14_List_iteratorIP15ConnectionPointES2_ET_S4_S4_RKT0_
                0x000000000003bb33       0x42 ./Wire.o
                0x000000000003bb33                _ZSt4findISt14_List_iteratorIP15ConnectionPointES2_ET_S4_S4_RKT0_
 *fill*         0x000000000003bb75        0x1 90909090
 .text._ZNKSt14_List_iteratorIP15ConnectionPointEeqERKS2_
                0x000000000003bb76       0x22 ./Wire.o
                0x000000000003bb76                _ZNKSt14_List_iteratorIP15ConnectionPointEeqERKS2_
 .text._ZNSt4listIP15ConnectionPointSaIS1_EE6removeERKS1_
                0x000000000003bb98      0x110 ./Wire.o
                0x000000000003bb98                _ZNSt4listIP15ConnectionPointSaIS1_EE6removeERKS1_
 .text._ZSt19__iterator_categoryISt14_List_iteratorIP15ConnectionPointEENSt15iterator_traitsIT_E17iterator_categoryERKS5_
                0x000000000003bca8        0xa ./Wire.o
                0x000000000003bca8                _ZSt19__iterator_categoryISt14_List_iteratorIP15ConnectionPointEENSt15iterator_traitsIT_E17iterator_categoryERKS5_
 .text._ZSt6__findISt14_List_iteratorIP15ConnectionPointES2_ET_S4_S4_RKT0_St18input_iterator_tag
                0x000000000003bcb2       0x6a ./Wire.o
                0x000000000003bcb2                _ZSt6__findISt14_List_iteratorIP15ConnectionPointES2_ET_S4_S4_RKT0_St18input_iterator_tag
 .text._ZSt11__addressofIKP15ConnectionPointEPT_RS3_
                0x000000000003bd1c        0xe ./Wire.o
                0x000000000003bd1c                _ZSt11__addressofIKP15ConnectionPointEPT_RS3_
 *fill*         0x000000000003bd2a        0x2 90909090
 .text          0x000000000003bd2c       0x7a ./Logging/BaseLogProvider.o
                0x000000000003bd2c                _ZN15BaseLogProviderC2Ev
                0x000000000003bd2c                _ZN15BaseLogProviderC1Ev
                0x000000000003bd48                _ZN15BaseLogProviderD1Ev
                0x000000000003bd48                _ZN15BaseLogProviderD2Ev
                0x000000000003bd80                _ZN15BaseLogProviderD0Ev
 *fill*         0x000000000003bda6        0x2 90909090
 .text          0x000000000003bda8      0xeac ./Logging/EventLogger.o
                0x000000000003bda8                _ZN11EventLoggerC2Ev
                0x000000000003bda8                _ZN11EventLoggerC1Ev
                0x000000000003bf32                _ZN11EventLoggerD1Ev
                0x000000000003bf32                _ZN11EventLoggerD2Ev
                0x000000000003c008                _ZN11EventLoggerD0Ev
                0x000000000003c02e                _ZN11EventLogger8InstanceEv
                0x000000000003c140                _ZN11EventLogger8RegisterEPv
                0x000000000003c188                _ZN11EventLogger10UnregisterEv
                0x000000000003c21e                _ZN11EventLogger6ToJsonEv
                0x000000000003c2ac                _ZN11EventLogger16WriteInformationEPKc
                0x000000000003c34e                _ZN11EventLogger12WriteVerboseEPKcz
                0x000000000003c4da                _ZN11EventLogger11WriteNoticeEPKc
                0x000000000003c57c                _ZN11EventLogger12WriteWarningEPKc
                0x000000000003c61e                _ZN11EventLogger13WriteCriticalEPKc
                0x000000000003c6c0                _ZN11EventLogger10WriteErrorEPKcz
                0x000000000003c84c                _ZN11EventLogger14WriteEmergencyEPKc
                0x000000000003c8ee                _ZN11EventLogger10WriteAlertEPKc
                0x000000000003c990                _ZN11EventLogger10WriteDebugEPKcz
                0x000000000003cb1c                _ZN11EventLogger15GetErrorMessageEi
 .text._ZNSt4listIPvSaIS0_EED2Ev
                0x000000000003cc54       0x1a ./Logging/EventLogger.o
                0x000000000003cc54                _ZNSt4listIPvSaIS0_EED1Ev
                0x000000000003cc54                _ZNSt4listIPvSaIS0_EED2Ev
 .text._ZNSt3mapIiSsSt4lessIiESaISt4pairIKiSsEEED2Ev
                0x000000000003cc6e       0x1a ./Logging/EventLogger.o
                0x000000000003cc6e                _ZNSt3mapIiSsSt4lessIiESaISt4pairIKiSsEEED1Ev
                0x000000000003cc6e                _ZNSt3mapIiSsSt4lessIiESaISt4pairIKiSsEEED2Ev
 .text._ZNSt4listIPvSaIS0_EEC2Ev
                0x000000000003cc88       0x1a ./Logging/EventLogger.o
                0x000000000003cc88                _ZNSt4listIPvSaIS0_EEC2Ev
                0x000000000003cc88                _ZNSt4listIPvSaIS0_EEC1Ev
 .text._ZNSt10_List_baseIPvSaIS0_EE10_List_implD2Ev
                0x000000000003cca2       0x1a ./Logging/EventLogger.o
                0x000000000003cca2                _ZNSt10_List_baseIPvSaIS0_EE10_List_implD2Ev
                0x000000000003cca2                _ZNSt10_List_baseIPvSaIS0_EE10_List_implD1Ev
 .text._ZNSt10_List_baseIPvSaIS0_EED2Ev
                0x000000000003ccbc       0x46 ./Logging/EventLogger.o
                0x000000000003ccbc                _ZNSt10_List_baseIPvSaIS0_EED1Ev
                0x000000000003ccbc                _ZNSt10_List_baseIPvSaIS0_EED2Ev
 .text._ZNSt3mapIiSsSt4lessIiESaISt4pairIKiSsEEEC2Ev
                0x000000000003cd02       0x1a ./Logging/EventLogger.o
                0x000000000003cd02                _ZNSt3mapIiSsSt4lessIiESaISt4pairIKiSsEEEC2Ev
                0x000000000003cd02                _ZNSt3mapIiSsSt4lessIiESaISt4pairIKiSsEEEC1Ev
 .text._ZNSt8_Rb_treeIiSt4pairIKiSsESt10_Select1stIS2_ESt4lessIiESaIS2_EE13_Rb_tree_implIS6_Lb0EED2Ev
                0x000000000003cd1c       0x1a ./Logging/EventLogger.o
                0x000000000003cd1c                _ZNSt8_Rb_treeIiSt4pairIKiSsESt10_Select1stIS2_ESt4lessIiESaIS2_EE13_Rb_tree_implIS6_Lb0EED1Ev
                0x000000000003cd1c                _ZNSt8_Rb_treeIiSt4pairIKiSsESt10_Select1stIS2_ESt4lessIiESaIS2_EE13_Rb_tree_implIS6_Lb0EED2Ev
 .text._ZNSt8_Rb_treeIiSt4pairIKiSsESt10_Select1stIS2_ESt4lessIiESaIS2_EED2Ev
                0x000000000003cd36       0x58 ./Logging/EventLogger.o
                0x000000000003cd36                _ZNSt8_Rb_treeIiSt4pairIKiSsESt10_Select1stIS2_ESt4lessIiESaIS2_EED1Ev
                0x000000000003cd36                _ZNSt8_Rb_treeIiSt4pairIKiSsESt10_Select1stIS2_ESt4lessIiESaIS2_EED2Ev
 .text._ZNSt4pairIKiSsED2Ev
                0x000000000003cd8e       0x1e ./Logging/EventLogger.o
                0x000000000003cd8e                _ZNSt4pairIKiSsED2Ev
                0x000000000003cd8e                _ZNSt4pairIKiSsED1Ev
 .text._ZNSt3mapIiSsSt4lessIiESaISt4pairIKiSsEEEixERS3_
                0x000000000003cdac      0x12c ./Logging/EventLogger.o
                0x000000000003cdac                _ZNSt3mapIiSsSt4lessIiESaISt4pairIKiSsEEEixERS3_
 .text._ZNSt4listIPvSaIS0_EE5clearEv
                0x000000000003ced8       0x26 ./Logging/EventLogger.o
                0x000000000003ced8                _ZNSt4listIPvSaIS0_EE5clearEv
 .text._ZNSt4listIPvSaIS0_EE9push_backERKS0_
                0x000000000003cefe       0x34 ./Logging/EventLogger.o
                0x000000000003cefe                _ZNSt4listIPvSaIS0_EE9push_backERKS0_
 .text._ZNSt14_List_iteratorIPvEC2Ev
                0x000000000003cf32       0x15 ./Logging/EventLogger.o
                0x000000000003cf32                _ZNSt14_List_iteratorIPvEC1Ev
                0x000000000003cf32                _ZNSt14_List_iteratorIPvEC2Ev
 *fill*         0x000000000003cf47        0x1 90909090
 .text._ZNSt4listIPvSaIS0_EE5beginEv
                0x000000000003cf48       0x28 ./Logging/EventLogger.o
                0x000000000003cf48                _ZNSt4listIPvSaIS0_EE5beginEv
 .text._ZNSt4listIPvSaIS0_EE3endEv
                0x000000000003cf70       0x25 ./Logging/EventLogger.o
                0x000000000003cf70                _ZNSt4listIPvSaIS0_EE3endEv
 *fill*         0x000000000003cf95        0x1 90909090
 .text._ZNKSt14_List_iteratorIPvEneERKS1_
                0x000000000003cf96       0x22 ./Logging/EventLogger.o
                0x000000000003cf96                _ZNKSt14_List_iteratorIPvEneERKS1_
 .text._ZNSt14_List_iteratorIPvEppEi
                0x000000000003cfb8       0x2d ./Logging/EventLogger.o
                0x000000000003cfb8                _ZNSt14_List_iteratorIPvEppEi
 *fill*         0x000000000003cfe5        0x1 90909090
 .text._ZNKSt14_List_iteratorIPvEdeEv
                0x000000000003cfe6       0x15 ./Logging/EventLogger.o
                0x000000000003cfe6                _ZNKSt14_List_iteratorIPvEdeEv
 *fill*         0x000000000003cffb        0x1 90909090
 .text._ZNSt3mapIiSsSt4lessIiESaISt4pairIKiSsEEE4findERS3_
                0x000000000003cffc       0x25 ./Logging/EventLogger.o
                0x000000000003cffc                _ZNSt3mapIiSsSt4lessIiESaISt4pairIKiSsEEE4findERS3_
 *fill*         0x000000000003d021        0x1 90909090
 .text._ZNSt3mapIiSsSt4lessIiESaISt4pairIKiSsEEE3endEv
                0x000000000003d022       0x1a ./Logging/EventLogger.o
                0x000000000003d022                _ZNSt3mapIiSsSt4lessIiESaISt4pairIKiSsEEE3endEv
 .text._ZNKSt17_Rb_tree_iteratorISt4pairIKiSsEEeqERKS3_
                0x000000000003d03c       0x22 ./Logging/EventLogger.o
                0x000000000003d03c                _ZNKSt17_Rb_tree_iteratorISt4pairIKiSsEEeqERKS3_
 .text._ZNSt10_List_baseIPvSaIS0_EEC2Ev
                0x000000000003d05e       0x48 ./Logging/EventLogger.o
                0x000000000003d05e                _ZNSt10_List_baseIPvSaIS0_EEC2Ev
                0x000000000003d05e                _ZNSt10_List_baseIPvSaIS0_EEC1Ev
 .text._ZNSaISt10_List_nodeIPvEED2Ev
                0x000000000003d0a6       0x1a ./Logging/EventLogger.o
                0x000000000003d0a6                _ZNSaISt10_List_nodeIPvEED2Ev
                0x000000000003d0a6                _ZNSaISt10_List_nodeIPvEED1Ev
 .text._ZNSt10_List_baseIPvSaIS0_EE8_M_clearEv
                0x000000000003d0c0       0xb3 ./Logging/EventLogger.o
                0x000000000003d0c0                _ZNSt10_List_baseIPvSaIS0_EE8_M_clearEv
 *fill*         0x000000000003d173        0x1 90909090
 .text._ZNSt8_Rb_treeIiSt4pairIKiSsESt10_Select1stIS2_ESt4lessIiESaIS2_EEC2Ev
                0x000000000003d174       0x1a ./Logging/EventLogger.o
                0x000000000003d174                _ZNSt8_Rb_treeIiSt4pairIKiSsESt10_Select1stIS2_ESt4lessIiESaIS2_EEC1Ev
                0x000000000003d174                _ZNSt8_Rb_treeIiSt4pairIKiSsESt10_Select1stIS2_ESt4lessIiESaIS2_EEC2Ev
 .text._ZNSaISt13_Rb_tree_nodeISt4pairIKiSsEEED2Ev
                0x000000000003d18e       0x1a ./Logging/EventLogger.o
                0x000000000003d18e                _ZNSaISt13_Rb_tree_nodeISt4pairIKiSsEEED1Ev
                0x000000000003d18e                _ZNSaISt13_Rb_tree_nodeISt4pairIKiSsEEED2Ev
 .text._ZNSt8_Rb_treeIiSt4pairIKiSsESt10_Select1stIS2_ESt4lessIiESaIS2_EE8_M_eraseEPSt13_Rb_tree_nodeIS2_E
                0x000000000003d1a8       0x69 ./Logging/EventLogger.o
                0x000000000003d1a8                _ZNSt8_Rb_treeIiSt4pairIKiSsESt10_Select1stIS2_ESt4lessIiESaIS2_EE8_M_eraseEPSt13_Rb_tree_nodeIS2_E
 *fill*         0x000000000003d211        0x1 90909090
 .text._ZNSt8_Rb_treeIiSt4pairIKiSsESt10_Select1stIS2_ESt4lessIiESaIS2_EE8_M_beginEv
                0x000000000003d212       0x12 ./Logging/EventLogger.o
                0x000000000003d212                _ZNSt8_Rb_treeIiSt4pairIKiSsESt10_Select1stIS2_ESt4lessIiESaIS2_EE8_M_beginEv
 .text._ZNSt3mapIiSsSt4lessIiESaISt4pairIKiSsEEE11lower_boundERS3_
                0x000000000003d224       0x25 ./Logging/EventLogger.o
                0x000000000003d224                _ZNSt3mapIiSsSt4lessIiESaISt4pairIKiSsEEE11lower_boundERS3_
 *fill*         0x000000000003d249        0x1 90909090
 .text._ZNKSt3mapIiSsSt4lessIiESaISt4pairIKiSsEEE8key_compEv
                0x000000000003d24a       0x22 ./Logging/EventLogger.o
                0x000000000003d24a                _ZNKSt3mapIiSsSt4lessIiESaISt4pairIKiSsEEE8key_compEv
 .text._ZNKSt17_Rb_tree_iteratorISt4pairIKiSsEEdeEv
                0x000000000003d26c       0x15 ./Logging/EventLogger.o
                0x000000000003d26c                _ZNKSt17_Rb_tree_iteratorISt4pairIKiSsEEdeEv
 *fill*         0x000000000003d281        0x1 90909090
 .text._ZNKSt4lessIiEclERKiS2_
                0x000000000003d282       0x23 ./Logging/EventLogger.o
                0x000000000003d282                _ZNKSt4lessIiEclERKiS2_
 *fill*         0x000000000003d2a5        0x1 90909090
 .text._ZNSt4pairIKiSsEC2ERS0_RKSs
                0x000000000003d2a6       0x39 ./Logging/EventLogger.o
                0x000000000003d2a6                _ZNSt4pairIKiSsEC2ERS0_RKSs
                0x000000000003d2a6                _ZNSt4pairIKiSsEC1ERS0_RKSs
 *fill*         0x000000000003d2df        0x1 90909090
 .text._ZNSt3mapIiSsSt4lessIiESaISt4pairIKiSsEEE6insertESt17_Rb_tree_iteratorIS4_ERKS4_
                0x000000000003d2e0       0x40 ./Logging/EventLogger.o
                0x000000000003d2e0                _ZNSt3mapIiSsSt4lessIiESaISt4pairIKiSsEEE6insertESt17_Rb_tree_iteratorIS4_ERKS4_
 .text._ZNSt10_List_baseIPvSaIS0_EE7_M_initEv
                0x000000000003d320       0x21 ./Logging/EventLogger.o
                0x000000000003d320                _ZNSt10_List_baseIPvSaIS0_EE7_M_initEv
 *fill*         0x000000000003d341        0x1 90909090
 .text._ZNSt4listIPvSaIS0_EE9_M_insertESt14_List_iteratorIS0_ERKS0_
                0x000000000003d342       0x40 ./Logging/EventLogger.o
                0x000000000003d342                _ZNSt4listIPvSaIS0_EE9_M_insertESt14_List_iteratorIS0_ERKS0_
 .text._ZNSt14_List_iteratorIPvEC2EPNSt8__detail15_List_node_baseE
                0x000000000003d382       0x19 ./Logging/EventLogger.o
                0x000000000003d382                _ZNSt14_List_iteratorIPvEC2EPNSt8__detail15_List_node_baseE
                0x000000000003d382                _ZNSt14_List_iteratorIPvEC1EPNSt8__detail15_List_node_baseE
 *fill*         0x000000000003d39b        0x1 90909090
 .text._ZNSt8_Rb_treeIiSt4pairIKiSsESt10_Select1stIS2_ESt4lessIiESaIS2_EE4findERS1_
                0x000000000003d39c       0xaf ./Logging/EventLogger.o
                0x000000000003d39c                _ZNSt8_Rb_treeIiSt4pairIKiSsESt10_Select1stIS2_ESt4lessIiESaIS2_EE4findERS1_
 *fill*         0x000000000003d44b        0x1 90909090
 .text._ZNSt8_Rb_treeIiSt4pairIKiSsESt10_Select1stIS2_ESt4lessIiESaIS2_EE3endEv
                0x000000000003d44c       0x29 ./Logging/EventLogger.o
                0x000000000003d44c                _ZNSt8_Rb_treeIiSt4pairIKiSsESt10_Select1stIS2_ESt4lessIiESaIS2_EE3endEv
 *fill*         0x000000000003d475        0x1 90909090
 .text._ZNSt10_List_baseIPvSaIS0_EE10_List_implC2Ev
                0x000000000003d476       0x31 ./Logging/EventLogger.o
                0x000000000003d476                _ZNSt10_List_baseIPvSaIS0_EE10_List_implC1Ev
                0x000000000003d476                _ZNSt10_List_baseIPvSaIS0_EE10_List_implC2Ev
 *fill*         0x000000000003d4a7        0x1 90909090
 .text._ZN9__gnu_cxx13new_allocatorISt10_List_nodeIPvEED2Ev
                0x000000000003d4a8        0xa ./Logging/EventLogger.o
                0x000000000003d4a8                _ZN9__gnu_cxx13new_allocatorISt10_List_nodeIPvEED1Ev
                0x000000000003d4a8                _ZN9__gnu_cxx13new_allocatorISt10_List_nodeIPvEED2Ev
 .text._ZNKSt10_List_baseIPvSaIS0_EE19_M_get_Tp_allocatorEv
                0x000000000003d4b2       0x34 ./Logging/EventLogger.o
                0x000000000003d4b2                _ZNKSt10_List_baseIPvSaIS0_EE19_M_get_Tp_allocatorEv
 .text._ZNSaIPvED2Ev
                0x000000000003d4e6       0x1a ./Logging/EventLogger.o
                0x000000000003d4e6                _ZNSaIPvED1Ev
                0x000000000003d4e6                _ZNSaIPvED2Ev
 .text._ZSt11__addressofIPvEPT_RS1_
                0x000000000003d500        0xe ./Logging/EventLogger.o
                0x000000000003d500                _ZSt11__addressofIPvEPT_RS1_
 .text._ZN9__gnu_cxx13new_allocatorIPvE7destroyEPS1_
                0x000000000003d50e        0xe ./Logging/EventLogger.o
                0x000000000003d50e                _ZN9__gnu_cxx13new_allocatorIPvE7destroyEPS1_
 .text._ZNSt10_List_baseIPvSaIS0_EE11_M_put_nodeEPSt10_List_nodeIS0_E
                0x000000000003d51c       0x2a ./Logging/EventLogger.o
                0x000000000003d51c                _ZNSt10_List_baseIPvSaIS0_EE11_M_put_nodeEPSt10_List_nodeIS0_E
 .text._ZNSt8_Rb_treeIiSt4pairIKiSsESt10_Select1stIS2_ESt4lessIiESaIS2_EE13_Rb_tree_implIS6_Lb0EEC2Ev
                0x000000000003d546       0x83 ./Logging/EventLogger.o
                0x000000000003d546                _ZNSt8_Rb_treeIiSt4pairIKiSsESt10_Select1stIS2_ESt4lessIiESaIS2_EE13_Rb_tree_implIS6_Lb0EEC2Ev
                0x000000000003d546                _ZNSt8_Rb_treeIiSt4pairIKiSsESt10_Select1stIS2_ESt4lessIiESaIS2_EE13_Rb_tree_implIS6_Lb0EEC1Ev
 *fill*         0x000000000003d5c9        0x1 90909090
 .text._ZN9__gnu_cxx13new_allocatorISt13_Rb_tree_nodeISt4pairIKiSsEEED2Ev
                0x000000000003d5ca        0xa ./Logging/EventLogger.o
                0x000000000003d5ca                _ZN9__gnu_cxx13new_allocatorISt13_Rb_tree_nodeISt4pairIKiSsEEED2Ev
                0x000000000003d5ca                _ZN9__gnu_cxx13new_allocatorISt13_Rb_tree_nodeISt4pairIKiSsEEED1Ev
 .text._ZNSt8_Rb_treeIiSt4pairIKiSsESt10_Select1stIS2_ESt4lessIiESaIS2_EE8_S_rightEPSt18_Rb_tree_node_base
                0x000000000003d5d4       0x12 ./Logging/EventLogger.o
                0x000000000003d5d4                _ZNSt8_Rb_treeIiSt4pairIKiSsESt10_Select1stIS2_ESt4lessIiESaIS2_EE8_S_rightEPSt18_Rb_tree_node_base
 .text._ZNSt8_Rb_treeIiSt4pairIKiSsESt10_Select1stIS2_ESt4lessIiESaIS2_EE7_S_leftEPSt18_Rb_tree_node_base
                0x000000000003d5e6       0x12 ./Logging/EventLogger.o
                0x000000000003d5e6                _ZNSt8_Rb_treeIiSt4pairIKiSsESt10_Select1stIS2_ESt4lessIiESaIS2_EE7_S_leftEPSt18_Rb_tree_node_base
 .text._ZNSt8_Rb_treeIiSt4pairIKiSsESt10_Select1stIS2_ESt4lessIiESaIS2_EE15_M_destroy_nodeEPSt13_Rb_tree_nodeIS2_E
                0x000000000003d5f8       0x86 ./Logging/EventLogger.o
                0x000000000003d5f8                _ZNSt8_Rb_treeIiSt4pairIKiSsESt10_Select1stIS2_ESt4lessIiESaIS2_EE15_M_destroy_nodeEPSt13_Rb_tree_nodeIS2_E
 .text._ZNSt8_Rb_treeIiSt4pairIKiSsESt10_Select1stIS2_ESt4lessIiESaIS2_EE11lower_boundERS1_
                0x000000000003d67e       0x4c ./Logging/EventLogger.o
                0x000000000003d67e                _ZNSt8_Rb_treeIiSt4pairIKiSsESt10_Select1stIS2_ESt4lessIiESaIS2_EE11lower_boundERS1_
 .text._ZNKSt8_Rb_treeIiSt4pairIKiSsESt10_Select1stIS2_ESt4lessIiESaIS2_EE8key_compEv
                0x000000000003d6ca        0xa ./Logging/EventLogger.o
                0x000000000003d6ca                _ZNKSt8_Rb_treeIiSt4pairIKiSsESt10_Select1stIS2_ESt4lessIiESaIS2_EE8key_compEv
 .text._ZNSt23_Rb_tree_const_iteratorISt4pairIKiSsEEC2ERKSt17_Rb_tree_iteratorIS2_E
                0x000000000003d6d4       0x1c ./Logging/EventLogger.o
                0x000000000003d6d4                _ZNSt23_Rb_tree_const_iteratorISt4pairIKiSsEEC1ERKSt17_Rb_tree_iteratorIS2_E
                0x000000000003d6d4                _ZNSt23_Rb_tree_const_iteratorISt4pairIKiSsEEC2ERKSt17_Rb_tree_iteratorIS2_E
 .text._ZNSt8_Rb_treeIiSt4pairIKiSsESt10_Select1stIS2_ESt4lessIiESaIS2_EE17_M_insert_unique_ESt23_Rb_tree_const_iteratorIS2_ERKS2_
                0x000000000003d6f0      0x3cd ./Logging/EventLogger.o
                0x000000000003d6f0                _ZNSt8_Rb_treeIiSt4pairIKiSsESt10_Select1stIS2_ESt4lessIiESaIS2_EE17_M_insert_unique_ESt23_Rb_tree_const_iteratorIS2_ERKS2_
 *fill*         0x000000000003dabd        0x1 90909090
 .text._ZNSt4listIPvSaIS0_EE14_M_create_nodeERKS0_
                0x000000000003dabe       0xb8 ./Logging/EventLogger.o
                0x000000000003dabe                _ZNSt4listIPvSaIS0_EE14_M_create_nodeERKS0_
 .text._ZNSt8_Rb_treeIiSt4pairIKiSsESt10_Select1stIS2_ESt4lessIiESaIS2_EE6_M_endEv
                0x000000000003db76       0x12 ./Logging/EventLogger.o
                0x000000000003db76                _ZNSt8_Rb_treeIiSt4pairIKiSsESt10_Select1stIS2_ESt4lessIiESaIS2_EE6_M_endEv
 .text._ZNSt8_Rb_treeIiSt4pairIKiSsESt10_Select1stIS2_ESt4lessIiESaIS2_EE14_M_lower_boundEPSt13_Rb_tree_nodeIS2_ESB_RS1_
                0x000000000003db88       0x92 ./Logging/EventLogger.o
                0x000000000003db88                _ZNSt8_Rb_treeIiSt4pairIKiSsESt10_Select1stIS2_ESt4lessIiESaIS2_EE14_M_lower_boundEPSt13_Rb_tree_nodeIS2_ESB_RS1_
 .text._ZNSt8_Rb_treeIiSt4pairIKiSsESt10_Select1stIS2_ESt4lessIiESaIS2_EE6_S_keyEPKSt18_Rb_tree_node_base
                0x000000000003dc1a       0x2c ./Logging/EventLogger.o
                0x000000000003dc1a                _ZNSt8_Rb_treeIiSt4pairIKiSsESt10_Select1stIS2_ESt4lessIiESaIS2_EE6_S_keyEPKSt18_Rb_tree_node_base
 .text._ZNSt17_Rb_tree_iteratorISt4pairIKiSsEEC2EPSt13_Rb_tree_nodeIS2_E
                0x000000000003dc46       0x19 ./Logging/EventLogger.o
                0x000000000003dc46                _ZNSt17_Rb_tree_iteratorISt4pairIKiSsEEC1EPSt13_Rb_tree_nodeIS2_E
                0x000000000003dc46                _ZNSt17_Rb_tree_iteratorISt4pairIKiSsEEC2EPSt13_Rb_tree_nodeIS2_E
 *fill*         0x000000000003dc5f        0x1 90909090
 .text._ZNSaISt10_List_nodeIPvEEC2Ev
                0x000000000003dc60       0x1a ./Logging/EventLogger.o
                0x000000000003dc60                _ZNSaISt10_List_nodeIPvEEC2Ev
                0x000000000003dc60                _ZNSaISt10_List_nodeIPvEEC1Ev
 .text._ZNKSt10_List_baseIPvSaIS0_EE21_M_get_Node_allocatorEv
                0x000000000003dc7a        0xe ./Logging/EventLogger.o
                0x000000000003dc7a                _ZNKSt10_List_baseIPvSaIS0_EE21_M_get_Node_allocatorEv
 .text._ZNSaIPvEC2ISt10_List_nodeIS_EEERKSaIT_E
                0x000000000003dc88       0x1e ./Logging/EventLogger.o
                0x000000000003dc88                _ZNSaIPvEC1ISt10_List_nodeIS_EEERKSaIT_E
                0x000000000003dc88                _ZNSaIPvEC2ISt10_List_nodeIS_EEERKSaIT_E
 .text._ZN9__gnu_cxx13new_allocatorIPvED2Ev
                0x000000000003dca6        0xa ./Logging/EventLogger.o
                0x000000000003dca6                _ZN9__gnu_cxx13new_allocatorIPvED2Ev
                0x000000000003dca6                _ZN9__gnu_cxx13new_allocatorIPvED1Ev
 .text._ZN9__gnu_cxx13new_allocatorISt10_List_nodeIPvEE10deallocateEPS3_m
                0x000000000003dcb0       0x22 ./Logging/EventLogger.o
                0x000000000003dcb0                _ZN9__gnu_cxx13new_allocatorISt10_List_nodeIPvEE10deallocateEPS3_m
 .text._ZNSaISt13_Rb_tree_nodeISt4pairIKiSsEEEC2Ev
                0x000000000003dcd2       0x1a ./Logging/EventLogger.o
                0x000000000003dcd2                _ZNSaISt13_Rb_tree_nodeISt4pairIKiSsEEEC2Ev
                0x000000000003dcd2                _ZNSaISt13_Rb_tree_nodeISt4pairIKiSsEEEC1Ev
 .text._ZNSt8_Rb_treeIiSt4pairIKiSsESt10_Select1stIS2_ESt4lessIiESaIS2_EE13_Rb_tree_implIS6_Lb0EE13_M_initializeEv
                0x000000000003dcec       0x41 ./Logging/EventLogger.o
                0x000000000003dcec                _ZNSt8_Rb_treeIiSt4pairIKiSsESt10_Select1stIS2_ESt4lessIiESaIS2_EE13_Rb_tree_implIS6_Lb0EE13_M_initializeEv
 *fill*         0x000000000003dd2d        0x1 90909090
 .text._ZNKSt8_Rb_treeIiSt4pairIKiSsESt10_Select1stIS2_ESt4lessIiESaIS2_EE13get_allocatorEv
                0x000000000003dd2e       0x34 ./Logging/EventLogger.o
                0x000000000003dd2e                _ZNKSt8_Rb_treeIiSt4pairIKiSsESt10_Select1stIS2_ESt4lessIiESaIS2_EE13get_allocatorEv
 .text._ZNSaISt4pairIKiSsEED2Ev
                0x000000000003dd62       0x1a ./Logging/EventLogger.o
                0x000000000003dd62                _ZNSaISt4pairIKiSsEED2Ev
                0x000000000003dd62                _ZNSaISt4pairIKiSsEED1Ev
 .text._ZSt11__addressofISt4pairIKiSsEEPT_RS3_
                0x000000000003dd7c        0xe ./Logging/EventLogger.o
                0x000000000003dd7c                _ZSt11__addressofISt4pairIKiSsEEPT_RS3_
 .text._ZN9__gnu_cxx13new_allocatorISt4pairIKiSsEE7destroyEPS3_
                0x000000000003dd8a       0x1e ./Logging/EventLogger.o
                0x000000000003dd8a                _ZN9__gnu_cxx13new_allocatorISt4pairIKiSsEE7destroyEPS3_
 .text._ZNSt8_Rb_treeIiSt4pairIKiSsESt10_Select1stIS2_ESt4lessIiESaIS2_EE11_M_put_nodeEPSt13_Rb_tree_nodeIS2_E
                0x000000000003dda8       0x2a ./Logging/EventLogger.o
                0x000000000003dda8                _ZNSt8_Rb_treeIiSt4pairIKiSsESt10_Select1stIS2_ESt4lessIiESaIS2_EE11_M_put_nodeEPSt13_Rb_tree_nodeIS2_E
 .text._ZNSt8_Rb_treeIiSt4pairIKiSsESt10_Select1stIS2_ESt4lessIiESaIS2_EE12_M_rightmostEv
                0x000000000003ddd2       0x12 ./Logging/EventLogger.o
                0x000000000003ddd2                _ZNSt8_Rb_treeIiSt4pairIKiSsESt10_Select1stIS2_ESt4lessIiESaIS2_EE12_M_rightmostEv
 .text._ZNKSt10_Select1stISt4pairIKiSsEEclERKS2_
                0x000000000003dde4       0x12 ./Logging/EventLogger.o
                0x000000000003dde4                _ZNKSt10_Select1stISt4pairIKiSsEEclERKS2_
 .text._ZNKSt8_Rb_treeIiSt4pairIKiSsESt10_Select1stIS2_ESt4lessIiESaIS2_EE4sizeEv
                0x000000000003ddf6       0x12 ./Logging/EventLogger.o
                0x000000000003ddf6                _ZNKSt8_Rb_treeIiSt4pairIKiSsESt10_Select1stIS2_ESt4lessIiESaIS2_EE4sizeEv
 .text._ZNSt8_Rb_treeIiSt4pairIKiSsESt10_Select1stIS2_ESt4lessIiESaIS2_EE10_M_insert_EPKSt18_Rb_tree_node_baseSB_RKS2_
                0x000000000003de08       0xe0 ./Logging/EventLogger.o
                0x000000000003de08                _ZNSt8_Rb_treeIiSt4pairIKiSsESt10_Select1stIS2_ESt4lessIiESaIS2_EE10_M_insert_EPKSt18_Rb_tree_node_baseSB_RKS2_
 .text._ZNSt8_Rb_treeIiSt4pairIKiSsESt10_Select1stIS2_ESt4lessIiESaIS2_EE16_M_insert_uniqueERKS2_
                0x000000000003dee8      0x241 ./Logging/EventLogger.o
                0x000000000003dee8                _ZNSt8_Rb_treeIiSt4pairIKiSsESt10_Select1stIS2_ESt4lessIiESaIS2_EE16_M_insert_uniqueERKS2_
 *fill*         0x000000000003e129        0x1 90909090
 .text._ZNSt8_Rb_treeIiSt4pairIKiSsESt10_Select1stIS2_ESt4lessIiESaIS2_EE11_M_leftmostEv
                0x000000000003e12a       0x12 ./Logging/EventLogger.o
                0x000000000003e12a                _ZNSt8_Rb_treeIiSt4pairIKiSsESt10_Select1stIS2_ESt4lessIiESaIS2_EE11_M_leftmostEv
 .text._ZNSt23_Rb_tree_const_iteratorISt4pairIKiSsEEmmEv
                0x000000000003e13c       0x28 ./Logging/EventLogger.o
                0x000000000003e13c                _ZNSt23_Rb_tree_const_iteratorISt4pairIKiSsEEmmEv
 .text._ZNSt8_Rb_treeIiSt4pairIKiSsESt10_Select1stIS2_ESt4lessIiESaIS2_EE8_S_rightEPKSt18_Rb_tree_node_base
                0x000000000003e164       0x12 ./Logging/EventLogger.o
                0x000000000003e164                _ZNSt8_Rb_treeIiSt4pairIKiSsESt10_Select1stIS2_ESt4lessIiESaIS2_EE8_S_rightEPKSt18_Rb_tree_node_base
 .text._ZNSt23_Rb_tree_const_iteratorISt4pairIKiSsEEppEv
                0x000000000003e176       0x28 ./Logging/EventLogger.o
                0x000000000003e176                _ZNSt23_Rb_tree_const_iteratorISt4pairIKiSsEEppEv
 .text._ZNKSt23_Rb_tree_const_iteratorISt4pairIKiSsEE13_M_const_castEv
                0x000000000003e19e       0x28 ./Logging/EventLogger.o
                0x000000000003e19e                _ZNKSt23_Rb_tree_const_iteratorISt4pairIKiSsEE13_M_const_castEv
 .text._ZNSt10_List_baseIPvSaIS0_EE11_M_get_nodeEv
                0x000000000003e1c6       0x24 ./Logging/EventLogger.o
                0x000000000003e1c6                _ZNSt10_List_baseIPvSaIS0_EE11_M_get_nodeEv
 .text._ZN9__gnu_cxx13new_allocatorIPvE9constructEPS1_RKS1_
                0x000000000003e1ea       0x36 ./Logging/EventLogger.o
                0x000000000003e1ea                _ZN9__gnu_cxx13new_allocatorIPvE9constructEPS1_RKS1_
 .text._ZNSt8_Rb_treeIiSt4pairIKiSsESt10_Select1stIS2_ESt4lessIiESaIS2_EE6_S_keyEPKSt13_Rb_tree_nodeIS2_E
                0x000000000003e220       0x2c ./Logging/EventLogger.o
                0x000000000003e220                _ZNSt8_Rb_treeIiSt4pairIKiSsESt10_Select1stIS2_ESt4lessIiESaIS2_EE6_S_keyEPKSt13_Rb_tree_nodeIS2_E
 .text._ZNSt8_Rb_treeIiSt4pairIKiSsESt10_Select1stIS2_ESt4lessIiESaIS2_EE8_S_valueEPKSt18_Rb_tree_node_base
                0x000000000003e24c       0x12 ./Logging/EventLogger.o
                0x000000000003e24c                _ZNSt8_Rb_treeIiSt4pairIKiSsESt10_Select1stIS2_ESt4lessIiESaIS2_EE8_S_valueEPKSt18_Rb_tree_node_base
 .text._ZN9__gnu_cxx13new_allocatorISt10_List_nodeIPvEEC2Ev
                0x000000000003e25e        0xa ./Logging/EventLogger.o
                0x000000000003e25e                _ZN9__gnu_cxx13new_allocatorISt10_List_nodeIPvEEC1Ev
                0x000000000003e25e                _ZN9__gnu_cxx13new_allocatorISt10_List_nodeIPvEEC2Ev
 .text._ZN9__gnu_cxx13new_allocatorIPvEC2Ev
                0x000000000003e268        0xa ./Logging/EventLogger.o
                0x000000000003e268                _ZN9__gnu_cxx13new_allocatorIPvEC2Ev
                0x000000000003e268                _ZN9__gnu_cxx13new_allocatorIPvEC1Ev
 .text._ZN9__gnu_cxx13new_allocatorISt13_Rb_tree_nodeISt4pairIKiSsEEEC2Ev
                0x000000000003e272        0xa ./Logging/EventLogger.o
                0x000000000003e272                _ZN9__gnu_cxx13new_allocatorISt13_Rb_tree_nodeISt4pairIKiSsEEEC2Ev
                0x000000000003e272                _ZN9__gnu_cxx13new_allocatorISt13_Rb_tree_nodeISt4pairIKiSsEEEC1Ev
 .text._ZNKSt8_Rb_treeIiSt4pairIKiSsESt10_Select1stIS2_ESt4lessIiESaIS2_EE21_M_get_Node_allocatorEv
                0x000000000003e27c        0xe ./Logging/EventLogger.o
                0x000000000003e27c                _ZNKSt8_Rb_treeIiSt4pairIKiSsESt10_Select1stIS2_ESt4lessIiESaIS2_EE21_M_get_Node_allocatorEv
 .text._ZNSaISt4pairIKiSsEEC2ISt13_Rb_tree_nodeIS1_EEERKSaIT_E
                0x000000000003e28a       0x1e ./Logging/EventLogger.o
                0x000000000003e28a                _ZNSaISt4pairIKiSsEEC2ISt13_Rb_tree_nodeIS1_EEERKSaIT_E
                0x000000000003e28a                _ZNSaISt4pairIKiSsEEC1ISt13_Rb_tree_nodeIS1_EEERKSaIT_E
 .text._ZN9__gnu_cxx13new_allocatorISt4pairIKiSsEED2Ev
                0x000000000003e2a8        0xa ./Logging/EventLogger.o
                0x000000000003e2a8                _ZN9__gnu_cxx13new_allocatorISt4pairIKiSsEED1Ev
                0x000000000003e2a8                _ZN9__gnu_cxx13new_allocatorISt4pairIKiSsEED2Ev
 .text._ZN9__gnu_cxx13new_allocatorISt13_Rb_tree_nodeISt4pairIKiSsEEE10deallocateEPS5_m
                0x000000000003e2b2       0x22 ./Logging/EventLogger.o
                0x000000000003e2b2                _ZN9__gnu_cxx13new_allocatorISt13_Rb_tree_nodeISt4pairIKiSsEEE10deallocateEPS5_m
 .text._ZNSt8_Rb_treeIiSt4pairIKiSsESt10_Select1stIS2_ESt4lessIiESaIS2_EE14_M_create_nodeERKS2_
                0x000000000003e2d4       0xb8 ./Logging/EventLogger.o
                0x000000000003e2d4                _ZNSt8_Rb_treeIiSt4pairIKiSsESt10_Select1stIS2_ESt4lessIiESaIS2_EE14_M_create_nodeERKS2_
 .text._ZNSt8_Rb_treeIiSt4pairIKiSsESt10_Select1stIS2_ESt4lessIiESaIS2_EE5beginEv
                0x000000000003e38c       0x29 ./Logging/EventLogger.o
                0x000000000003e38c                _ZNSt8_Rb_treeIiSt4pairIKiSsESt10_Select1stIS2_ESt4lessIiESaIS2_EE5beginEv
 *fill*         0x000000000003e3b5        0x1 90909090
 .text._ZNSt4pairISt17_Rb_tree_iteratorIS_IKiSsEEbEC2ERKS3_RKb
                0x000000000003e3b6       0x2e ./Logging/EventLogger.o
                0x000000000003e3b6                _ZNSt4pairISt17_Rb_tree_iteratorIS_IKiSsEEbEC1ERKS3_RKb
                0x000000000003e3b6                _ZNSt4pairISt17_Rb_tree_iteratorIS_IKiSsEEbEC2ERKS3_RKb
 .text._ZNSt17_Rb_tree_iteratorISt4pairIKiSsEEmmEv
                0x000000000003e3e4       0x28 ./Logging/EventLogger.o
                0x000000000003e3e4                _ZNSt17_Rb_tree_iteratorISt4pairIKiSsEEmmEv
 .text._ZN9__gnu_cxx13new_allocatorISt10_List_nodeIPvEE8allocateEmPKv
                0x000000000003e40c       0x4b ./Logging/EventLogger.o
                0x000000000003e40c                _ZN9__gnu_cxx13new_allocatorISt10_List_nodeIPvEE8allocateEmPKv
 .text._ZNSt8_Rb_treeIiSt4pairIKiSsESt10_Select1stIS2_ESt4lessIiESaIS2_EE8_S_valueEPKSt13_Rb_tree_nodeIS2_E
                0x000000000003e457       0x12 ./Logging/EventLogger.o
                0x000000000003e457                _ZNSt8_Rb_treeIiSt4pairIKiSsESt10_Select1stIS2_ESt4lessIiESaIS2_EE8_S_valueEPKSt13_Rb_tree_nodeIS2_E
 *fill*         0x000000000003e469        0x1 90909090
 .text._ZN9__gnu_cxx13new_allocatorISt4pairIKiSsEEC2Ev
                0x000000000003e46a        0xa ./Logging/EventLogger.o
                0x000000000003e46a                _ZN9__gnu_cxx13new_allocatorISt4pairIKiSsEEC2Ev
                0x000000000003e46a                _ZN9__gnu_cxx13new_allocatorISt4pairIKiSsEEC1Ev
 .text._ZNSt8_Rb_treeIiSt4pairIKiSsESt10_Select1stIS2_ESt4lessIiESaIS2_EE11_M_get_nodeEv
                0x000000000003e474       0x24 ./Logging/EventLogger.o
                0x000000000003e474                _ZNSt8_Rb_treeIiSt4pairIKiSsESt10_Select1stIS2_ESt4lessIiESaIS2_EE11_M_get_nodeEv
 .text._ZNSt4pairIKiSsEC2ERKS1_
                0x000000000003e498       0x39 ./Logging/EventLogger.o
                0x000000000003e498                _ZNSt4pairIKiSsEC1ERKS1_
                0x000000000003e498                _ZNSt4pairIKiSsEC2ERKS1_
 *fill*         0x000000000003e4d1        0x1 90909090
 .text._ZN9__gnu_cxx13new_allocatorISt4pairIKiSsEE9constructEPS3_RKS3_
                0x000000000003e4d2       0x67 ./Logging/EventLogger.o
                0x000000000003e4d2                _ZN9__gnu_cxx13new_allocatorISt4pairIKiSsEE9constructEPS3_RKS3_
 *fill*         0x000000000003e539        0x1 90909090
 .text._ZNK9__gnu_cxx13new_allocatorISt10_List_nodeIPvEE8max_sizeEv
                0x000000000003e53a       0x14 ./Logging/EventLogger.o
                0x000000000003e53a                _ZNK9__gnu_cxx13new_allocatorISt10_List_nodeIPvEE8max_sizeEv
 .text._ZN9__gnu_cxx13new_allocatorISt13_Rb_tree_nodeISt4pairIKiSsEEE8allocateEmPKv
                0x000000000003e54e       0x4b ./Logging/EventLogger.o
                0x000000000003e54e                _ZN9__gnu_cxx13new_allocatorISt13_Rb_tree_nodeISt4pairIKiSsEEE8allocateEmPKv
 *fill*         0x000000000003e599        0x1 90909090
 .text._ZNK9__gnu_cxx13new_allocatorISt13_Rb_tree_nodeISt4pairIKiSsEEE8max_sizeEv
                0x000000000003e59a       0x14 ./Logging/EventLogger.o
                0x000000000003e59a                _ZNK9__gnu_cxx13new_allocatorISt13_Rb_tree_nodeISt4pairIKiSsEEE8max_sizeEv
 *fill*         0x000000000003e5ae        0x2 90909090
 .text          0x000000000003e5b0     0x116b ./Logging/JsonLogProvider.o
                0x000000000003e5b0                _ZN15JsonLogProviderC2Ev
                0x000000000003e5b0                _ZN15JsonLogProviderC1Ev
                0x000000000003e6c0                _ZN15JsonLogProviderD2Ev
                0x000000000003e6c0                _ZN15JsonLogProviderD1Ev
                0x000000000003e750                _ZN15JsonLogProviderD0Ev
                0x000000000003e776                _ZN15JsonLogProvider7OpenLogEv
                0x000000000003e780                _ZN15JsonLogProvider8CloseLogEv
                0x000000000003e78a                _ZN15JsonLogProvider16WriteInformationEPKc
                0x000000000003e878                _ZN15JsonLogProvider11WriteNoticeEPKc
                0x000000000003e966                _ZN15JsonLogProvider12WriteWarningEPKc
                0x000000000003ea54                _ZN15JsonLogProvider13WriteCriticalEPKc
                0x000000000003eb42                _ZN15JsonLogProvider10WriteErrorEPKc
                0x000000000003ec30                _ZN15JsonLogProvider14WriteEmergencyEPKc
                0x000000000003ed1e                _ZN15JsonLogProvider10WriteAlertEPKc
                0x000000000003ee0c                _ZN15JsonLogProvider10WriteDebugEPKc
                0x000000000003eefa                _ZN15JsonLogProvider12WriteMessageESsSs
                0x000000000003f52c                _ZN15JsonLogProvider6ToJsonEv
 *fill*         0x000000000003f71b        0x1 90909090
 .text._ZNSt4listISsSaISsEE10push_frontERKSs
                0x000000000003f71c       0x34 ./Logging/JsonLogProvider.o
                0x000000000003f71c                _ZNSt4listISsSaISsEE10push_frontERKSs
 .text._ZNKSt4listISsSaISsEE4sizeEv
                0x000000000003f750       0x3a ./Logging/JsonLogProvider.o
                0x000000000003f750                _ZNKSt4listISsSaISsEE4sizeEv
 .text._ZNSt4listISsSaISsEE8pop_backEv
                0x000000000003f78a       0x38 ./Logging/JsonLogProvider.o
                0x000000000003f78a                _ZNSt4listISsSaISsEE8pop_backEv
 .text._ZNSt14_List_iteratorISsEC2Ev
                0x000000000003f7c2       0x15 ./Logging/JsonLogProvider.o
                0x000000000003f7c2                _ZNSt14_List_iteratorISsEC2Ev
                0x000000000003f7c2                _ZNSt14_List_iteratorISsEC1Ev
 *fill*         0x000000000003f7d7        0x1 90909090
 .text._ZNSt4listISsSaISsEE5beginEv
                0x000000000003f7d8       0x28 ./Logging/JsonLogProvider.o
                0x000000000003f7d8                _ZNSt4listISsSaISsEE5beginEv
 .text._ZNSt4listISsSaISsEE3endEv
                0x000000000003f800       0x25 ./Logging/JsonLogProvider.o
                0x000000000003f800                _ZNSt4listISsSaISsEE3endEv
 *fill*         0x000000000003f825        0x1 90909090
 .text._ZNKSt14_List_iteratorISsEneERKS0_
                0x000000000003f826       0x22 ./Logging/JsonLogProvider.o
                0x000000000003f826                _ZNKSt14_List_iteratorISsEneERKS0_
 .text._ZNSt14_List_iteratorISsEppEi
                0x000000000003f848       0x2d ./Logging/JsonLogProvider.o
                0x000000000003f848                _ZNSt14_List_iteratorISsEppEi
 *fill*         0x000000000003f875        0x1 90909090
 .text._ZNKSt14_List_iteratorISsEdeEv
                0x000000000003f876       0x15 ./Logging/JsonLogProvider.o
                0x000000000003f876                _ZNKSt14_List_iteratorISsEdeEv
 *fill*         0x000000000003f88b        0x1 90909090
 .text._ZNSt4listISsSaISsEE9_M_insertESt14_List_iteratorISsERKSs
                0x000000000003f88c       0x40 ./Logging/JsonLogProvider.o
                0x000000000003f88c                _ZNSt4listISsSaISsEE9_M_insertESt14_List_iteratorISsERKSs
 .text._ZNKSt4listISsSaISsEE5beginEv
                0x000000000003f8cc       0x28 ./Logging/JsonLogProvider.o
                0x000000000003f8cc                _ZNKSt4listISsSaISsEE5beginEv
 .text._ZNKSt4listISsSaISsEE3endEv
                0x000000000003f8f4       0x25 ./Logging/JsonLogProvider.o
                0x000000000003f8f4                _ZNKSt4listISsSaISsEE3endEv
 .text._ZSt8distanceISt20_List_const_iteratorISsEENSt15iterator_traitsIT_E15difference_typeES3_S3_
                0x000000000003f919       0x3a ./Logging/JsonLogProvider.o
                0x000000000003f919                _ZSt8distanceISt20_List_const_iteratorISsEENSt15iterator_traitsIT_E15difference_typeES3_S3_
 *fill*         0x000000000003f953        0x1 90909090
 .text._ZNSt14_List_iteratorISsEC2EPNSt8__detail15_List_node_baseE
                0x000000000003f954       0x19 ./Logging/JsonLogProvider.o
                0x000000000003f954                _ZNSt14_List_iteratorISsEC1EPNSt8__detail15_List_node_baseE
                0x000000000003f954                _ZNSt14_List_iteratorISsEC2EPNSt8__detail15_List_node_baseE
 *fill*         0x000000000003f96d        0x1 90909090
 .text._ZNSt4listISsSaISsEE8_M_eraseESt14_List_iteratorISsE
                0x000000000003f96e       0x9a ./Logging/JsonLogProvider.o
                0x000000000003f96e                _ZNSt4listISsSaISsEE8_M_eraseESt14_List_iteratorISsE
 .text._ZNSt4listISsSaISsEE14_M_create_nodeERKSs
                0x000000000003fa08       0xb8 ./Logging/JsonLogProvider.o
                0x000000000003fa08                _ZNSt4listISsSaISsEE14_M_create_nodeERKSs
 .text._ZNSt20_List_const_iteratorISsEC2EPKNSt8__detail15_List_node_baseE
                0x000000000003fac0       0x19 ./Logging/JsonLogProvider.o
                0x000000000003fac0                _ZNSt20_List_const_iteratorISsEC1EPKNSt8__detail15_List_node_baseE
                0x000000000003fac0                _ZNSt20_List_const_iteratorISsEC2EPKNSt8__detail15_List_node_baseE
 .text._ZSt19__iterator_categoryISt20_List_const_iteratorISsEENSt15iterator_traitsIT_E17iterator_categoryERKS3_
                0x000000000003fad9        0xa ./Logging/JsonLogProvider.o
                0x000000000003fad9                _ZSt19__iterator_categoryISt20_List_const_iteratorISsEENSt15iterator_traitsIT_E17iterator_categoryERKS3_
 .text._ZSt10__distanceISt20_List_const_iteratorISsEENSt15iterator_traitsIT_E15difference_typeES3_S3_St18input_iterator_tag
                0x000000000003fae3       0x48 ./Logging/JsonLogProvider.o
                0x000000000003fae3                _ZSt10__distanceISt20_List_const_iteratorISsEENSt15iterator_traitsIT_E15difference_typeES3_S3_St18input_iterator_tag
 *fill*         0x000000000003fb2b        0x1 90909090
 .text._ZNSt10_List_baseISsSaISsEE11_M_get_nodeEv
                0x000000000003fb2c       0x24 ./Logging/JsonLogProvider.o
                0x000000000003fb2c                _ZNSt10_List_baseISsSaISsEE11_M_get_nodeEv
 .text._ZN9__gnu_cxx13new_allocatorISsE9constructEPSsRKSs
                0x000000000003fb50       0x67 ./Logging/JsonLogProvider.o
                0x000000000003fb50                _ZN9__gnu_cxx13new_allocatorISsE9constructEPSsRKSs
 *fill*         0x000000000003fbb7        0x1 90909090
 .text._ZNKSt20_List_const_iteratorISsEneERKS0_
                0x000000000003fbb8       0x22 ./Logging/JsonLogProvider.o
                0x000000000003fbb8                _ZNKSt20_List_const_iteratorISsEneERKS0_
 .text._ZNSt20_List_const_iteratorISsEppEv
                0x000000000003fbda       0x1f ./Logging/JsonLogProvider.o
                0x000000000003fbda                _ZNSt20_List_const_iteratorISsEppEv
 *fill*         0x000000000003fbf9        0x1 90909090
 .text._ZN9__gnu_cxx13new_allocatorISt10_List_nodeISsEE8allocateEmPKv
                0x000000000003fbfa       0x4b ./Logging/JsonLogProvider.o
                0x000000000003fbfa                _ZN9__gnu_cxx13new_allocatorISt10_List_nodeISsEE8allocateEmPKv
 *fill*         0x000000000003fc45        0x1 90909090
 .text._ZNK9__gnu_cxx13new_allocatorISt10_List_nodeISsEE8max_sizeEv
                0x000000000003fc46       0x14 ./Logging/JsonLogProvider.o
                0x000000000003fc46                _ZNK9__gnu_cxx13new_allocatorISt10_List_nodeISsEE8max_sizeEv
 *fill*         0x000000000003fc5a        0x2 90909090
 .text          0x000000000003fc5c      0x312 ./Logging/SysLogProvider.o
                0x000000000003fc5c                _ZN14SysLogProviderC1EPKc
                0x000000000003fc5c                _ZN14SysLogProviderC2EPKc
                0x000000000003fc98                _ZN14SysLogProviderD2Ev
                0x000000000003fc98                _ZN14SysLogProviderD1Ev
                0x000000000003fcdc                _ZN14SysLogProviderD0Ev
                0x000000000003fd02                _ZN14SysLogProvider7OpenLogEv
                0x000000000003fd2a                _ZN14SysLogProvider8CloseLogEv
                0x000000000003fd3e                _ZN14SysLogProvider8ClearLogEv
                0x000000000003fd92                _ZN14SysLogProvider16WriteInformationEPKc
                0x000000000003fdc2                _ZN14SysLogProvider11WriteNoticeEPKc
                0x000000000003fdf2                _ZN14SysLogProvider12WriteWarningEPKc
                0x000000000003fe22                _ZN14SysLogProvider13WriteCriticalEPKc
                0x000000000003fe52                _ZN14SysLogProvider10WriteErrorEPKc
                0x000000000003fe82                _ZN14SysLogProvider14WriteEmergencyEPKc
                0x000000000003feb2                _ZN14SysLogProvider10WriteAlertEPKc
                0x000000000003fee2                _ZN14SysLogProvider10WriteDebugEPKc
 *fill*         0x000000000003ff6e        0x2 90909090
 .text          0x000000000003ff70       0x10 /usr/lib/x86_64-linux-gnu/libc_nonshared.a(stat.oS)
                0x000000000003ff70                __stat
                0x000000000003ff70                stat
 .text          0x000000000003ff80       0x36 /usr/lib/gcc/x86_64-linux-gnu/4.6/crtendS.o
 *fill*         0x000000000003ffb6        0x2 90909090
 .text          0x000000000003ffb8        0x0 /usr/lib/gcc/x86_64-linux-gnu/4.6/../../../x86_64-linux-gnu/crtn.o
 *(.gnu.warning)

.fini           0x000000000003ffb8        0xe
 *(.fini)
 .fini          0x000000000003ffb8        0x4 /usr/lib/gcc/x86_64-linux-gnu/4.6/../../../x86_64-linux-gnu/crti.o
                0x000000000003ffb8                _fini
 .fini          0x000000000003ffbc        0x5 /usr/lib/gcc/x86_64-linux-gnu/4.6/crtbeginS.o
 .fini          0x000000000003ffc1        0x5 /usr/lib/gcc/x86_64-linux-gnu/4.6/../../../x86_64-linux-gnu/crtn.o
                0x000000000003ffc6                PROVIDE (__etext, .)
                0x000000000003ffc6                PROVIDE (_etext, .)
                0x000000000003ffc6                PROVIDE (etext, .)

.rodata         0x000000000003ffd0      0xa11
 *(.rodata .rodata.* .gnu.linkonce.r.*)
 .rodata        0x000000000003ffd0       0x7f ./BaseDevice.o
 .rodata._ZTS10BaseDevice
                0x000000000004004f        0xd ./BaseDevice.o
                0x000000000004004f                _ZTS10BaseDevice
 .rodata._ZTS9ErrorItem
                0x000000000004005c        0xb ./BaseDevice.o
                0x000000000004005c                _ZTS9ErrorItem
 *fill*         0x0000000000040067        0x9 00
 .rodata._ZTS13IRefreshValue
                0x0000000000040070       0x10 ./BaseDevice.o
                0x0000000000040070                _ZTS13IRefreshValue
 .rodata._ZTS13IValueChanged
                0x0000000000040080       0x10 ./BaseDevice.o
                0x0000000000040080                _ZTS13IValueChanged
 .rodata        0x0000000000040090       0x19 ./BaseDriver.o
 .rodata._ZTS10BaseDriver
                0x00000000000400a9        0xd ./BaseDriver.o
                0x00000000000400a9                _ZTS10BaseDriver
 *fill*         0x00000000000400b6        0xa 00
 .rodata._ZTS13DriverCommand
                0x00000000000400c0       0x10 ./BaseDriver.o
                0x00000000000400c0                _ZTS13DriverCommand
 .rodata        0x00000000000400d0       0x5a ./Command.o
 .rodata._ZTS7Command
                0x000000000004012a        0x9 ./Command.o
                0x000000000004012a                _ZTS7Command
 *fill*         0x0000000000040133        0x5 00
 .rodata        0x0000000000040138       0x7a ./Configuration.o
 *fill*         0x00000000000401b2        0xe 00
 .rodata._ZTS13Configuration
                0x00000000000401c0       0x10 ./Configuration.o
                0x00000000000401c0                _ZTS13Configuration
 .rodata        0x00000000000401d0       0x13 ./ConnectionPoint.o
 *fill*         0x00000000000401e3        0xd 00
 .rodata._ZTS15ConnectionPoint
                0x00000000000401f0       0x12 ./ConnectionPoint.o
                0x00000000000401f0                _ZTS15ConnectionPoint
 *fill*         0x0000000000040202        0x2 00
 .rodata        0x0000000000040204       0x80 ./Convert.o
 .rodata        0x0000000000040284        0x1 ./DataSerializationManager.o
 *fill*         0x0000000000040285        0xb 00
 .rodata._ZTS24DataSerializationManager
                0x0000000000040290       0x1b ./DataSerializationManager.o
                0x0000000000040290                _ZTS24DataSerializationManager
 .rodata        0x00000000000402ab       0x38 ./Event.o
 .rodata._ZTS5Event
                0x00000000000402e3        0x7 ./Event.o
                0x00000000000402e3                _ZTS5Event
 *fill*         0x00000000000402ea        0x6 00
 .rodata._ZTS17InConnectionPoint
                0x00000000000402f0       0x14 ./InConnectionPoint.o
                0x00000000000402f0                _ZTS17InConnectionPoint
 .rodata        0x0000000000040304      0x1d1 ./JsonParameters.o
 .rodata        0x00000000000404d5       0x10 ./LogEntry.o
 .rodata._ZTS8LogEntry
                0x00000000000404e5        0xa ./LogEntry.o
                0x00000000000404e5                _ZTS8LogEntry
 *fill*         0x00000000000404ef        0x1 00
 .rodata._ZTS18OutConnectionPoint
                0x00000000000404f0       0x15 ./OutConnectionPoint.o
                0x00000000000404f0                _ZTS18OutConnectionPoint
 .rodata        0x0000000000040505       0x42 ./Pinout.o
 .rodata._ZTS6Pinout
                0x0000000000040547        0x8 ./Pinout.o
                0x0000000000040547                _ZTS6Pinout
 *fill*         0x000000000004054f        0x1 00
 .rodata        0x0000000000040550      0x1e0 ./Process.o
 .rodata._ZTS7Process
                0x0000000000040730        0x9 ./Process.o
                0x0000000000040730                _ZTS7Process
 *fill*         0x0000000000040739        0x7 00
 .rodata._ZTS13IErrorHandler
                0x0000000000040740       0x10 ./Process.o
                0x0000000000040740                _ZTS13IErrorHandler
 .rodata._ZTS7Program
                0x0000000000040750        0x9 ./Program.o
                0x0000000000040750                _ZTS7Program
 *fill*         0x0000000000040759        0x7 00
 .rodata        0x0000000000040760       0x7b ./Wire.o
 .rodata._ZTS4Wire
                0x00000000000407db        0x6 ./Wire.o
                0x00000000000407db                _ZTS4Wire
 *fill*         0x00000000000407e1        0xf 00
 .rodata._ZTS15BaseLogProvider
                0x00000000000407f0       0x12 ./Logging/BaseLogProvider.o
                0x00000000000407f0                _ZTS15BaseLogProvider
 *fill*         0x0000000000040802        0x6 00
 .rodata        0x0000000000040808      0x11f ./Logging/EventLogger.o
 .rodata._ZTS11EventLogger
                0x0000000000040927        0xe ./Logging/EventLogger.o
                0x0000000000040927                _ZTS11EventLogger
 .rodata        0x0000000000040935       0x76 ./Logging/JsonLogProvider.o
 *fill*         0x00000000000409ab        0x5 00
 .rodata._ZTS15JsonLogProvider
                0x00000000000409b0       0x12 ./Logging/JsonLogProvider.o
                0x00000000000409b0                _ZTS15JsonLogProvider
 .rodata        0x00000000000409c2        0x3 ./Logging/SysLogProvider.o
 *fill*         0x00000000000409c5        0xb 00
 .rodata._ZTS14SysLogProvider
                0x00000000000409d0       0x11 ./Logging/SysLogProvider.o
                0x00000000000409d0                _ZTS14SysLogProvider

.rodata1
 *(.rodata1)

.eh_frame_hdr   0x00000000000409e4     0x1ebc
 *(.eh_frame_hdr)
 .eh_frame_hdr  0x00000000000409e4     0x1ebc /usr/lib/gcc/x86_64-linux-gnu/4.6/../../../x86_64-linux-gnu/crti.o

.eh_frame       0x00000000000428a0     0x81a4
 *(.eh_frame)
 .eh_frame      0x00000000000428a0       0x40 /usr/lib/gcc/x86_64-linux-gnu/4.6/../../../x86_64-linux-gnu/crti.o
 .eh_frame      0x00000000000428e0     0x17a8 ./BaseDevice.o
 .eh_frame      0x0000000000044088      0xaf0 ./BaseDriver.o
                                        0xbb0 (size before relaxing)
 .eh_frame      0x0000000000044b78      0x8d8 ./Command.o
                                        0x9a8 (size before relaxing)
 .eh_frame      0x0000000000045450      0xc68 ./Configuration.o
                                        0xd50 (size before relaxing)
 .eh_frame      0x00000000000460b8      0x390 ./ConnectionPoint.o
                                        0x458 (size before relaxing)
 .eh_frame      0x0000000000046448      0x1c8 ./Convert.o
                                        0x260 (size before relaxing)
 .eh_frame      0x0000000000046610      0x130 ./DataSerializationManager.o
                                        0x168 (size before relaxing)
 .eh_frame      0x0000000000046740      0x880 ./Event.o
                                        0x978 (size before relaxing)
 .eh_frame      0x0000000000046fc0      0x1a0 ./InConnectionPoint.o
                                        0x1d8 (size before relaxing)
 .eh_frame      0x0000000000047160       0x48 ./JsonParameters.o
                                         0x80 (size before relaxing)
 .eh_frame      0x00000000000471a8      0x138 ./LogEntry.o
                                        0x170 (size before relaxing)
 .eh_frame      0x00000000000472e0      0x1a0 ./OutConnectionPoint.o
                                        0x1d8 (size before relaxing)
 .eh_frame      0x0000000000047480      0x768 ./Pinout.o
                                       0x1ae8 (size before relaxing)
 .eh_frame      0x0000000000047be8      0x8d8 ./Process.o
                                       0x1010 (size before relaxing)
 .eh_frame      0x00000000000484c0      0xa68 ./Program.o
                                        0xb90 (size before relaxing)
 .eh_frame      0x0000000000048f28      0x290 ./Wire.o
                                        0x7f8 (size before relaxing)
 .eh_frame      0x00000000000491b8       0x60 ./Logging/BaseLogProvider.o
                                         0x78 (size before relaxing)
 .eh_frame      0x0000000000049218     0x1048 ./Logging/EventLogger.o
                                       0x10a8 (size before relaxing)
 .eh_frame      0x000000000004a260      0x5c8 ./Logging/JsonLogProvider.o
                                        0x9a0 (size before relaxing)
 .eh_frame      0x000000000004a828      0x200 ./Logging/SysLogProvider.o
                                        0x218 (size before relaxing)
 .eh_frame      0x000000000004aa28       0x18 /usr/lib/x86_64-linux-gnu/libc_nonshared.a(stat.oS)
                                         0x30 (size before relaxing)
 .eh_frame      0x000000000004aa40        0x4 /usr/lib/gcc/x86_64-linux-gnu/4.6/crtendS.o

.gcc_except_table
                0x000000000004aa44     0x20b4
 *(.gcc_except_table .gcc_except_table.*)
 .gcc_except_table
                0x000000000004aa44      0x47c ./BaseDevice.o
 .gcc_except_table
                0x000000000004aec0      0x1aa ./BaseDriver.o
 *fill*         0x000000000004b06a        0x2 00
 .gcc_except_table
                0x000000000004b06c      0x288 ./Command.o
 .gcc_except_table
                0x000000000004b2f4      0x268 ./Configuration.o
 .gcc_except_table
                0x000000000004b55c      0x157 ./ConnectionPoint.o
 .gcc_except_table
                0x000000000004b6b3       0xe1 ./Convert.o
 .gcc_except_table
                0x000000000004b794       0x40 ./DataSerializationManager.o
 .gcc_except_table
                0x000000000004b7d4      0x278 ./Event.o
 .gcc_except_table
                0x000000000004ba4c       0x84 ./InConnectionPoint.o
 .gcc_except_table
                0x000000000004bad0      0x196 ./JsonParameters.o
 .gcc_except_table
                0x000000000004bc66       0x33 ./LogEntry.o
 .gcc_except_table
                0x000000000004bc99       0x84 ./OutConnectionPoint.o
 *fill*         0x000000000004bd1d        0x3 00
 .gcc_except_table
                0x000000000004bd20      0x3f4 ./Pinout.o
 .gcc_except_table
                0x000000000004c114      0x408 ./Process.o
 .gcc_except_table
                0x000000000004c51c      0x120 ./Program.o
 .gcc_except_table
                0x000000000004c63c       0x8c ./Wire.o
 .gcc_except_table
                0x000000000004c6c8      0x148 ./Logging/EventLogger.o
 .gcc_except_table
                0x000000000004c810      0x2e8 ./Logging/JsonLogProvider.o

.exception_ranges
 *(.exception_ranges .exception_ranges*)
                0x000000000004caf8                . = (ALIGN (0x200000) - ((0x200000 - .) & 0x1fffff))
                0x000000000024d048                . = DATA_SEGMENT_ALIGN (0x200000, 0x1000)

.eh_frame
 *(.eh_frame)

.gcc_except_table
 *(.gcc_except_table .gcc_except_table.*)

.exception_ranges
 *(.exception_ranges .exception_ranges*)

.tdata
 *(.tdata .tdata.* .gnu.linkonce.td.*)

.tbss
 *(.tbss .tbss.* .gnu.linkonce.tb.*)
 *(.tcommon)

.preinit_array
 *(.preinit_array)

.init_array     0x000000000024d048       0x98
 *(SORT(.init_array.*) SORT(.ctors.*))
 *(.init_array)
 *(EXCLUDE_FILE(*crtend?.o *crtend.o *crtbegin?.o *crtbegin.o) .ctors)
 .ctors         0x000000000024d048        0x8 ./BaseDevice.o
 .ctors         0x000000000024d050        0x8 ./BaseDriver.o
 .ctors         0x000000000024d058        0x8 ./Command.o
 .ctors         0x000000000024d060        0x8 ./Configuration.o
 .ctors         0x000000000024d068        0x8 ./ConnectionPoint.o
 .ctors         0x000000000024d070        0x8 ./Convert.o
 .ctors         0x000000000024d078        0x8 ./DataSerializationManager.o
 .ctors         0x000000000024d080        0x8 ./Event.o
 .ctors         0x000000000024d088        0x8 ./InConnectionPoint.o
 .ctors         0x000000000024d090        0x8 ./JsonParameters.o
 .ctors         0x000000000024d098        0x8 ./LogEntry.o
 .ctors         0x000000000024d0a0        0x8 ./OutConnectionPoint.o
 .ctors         0x000000000024d0a8        0x8 ./Pinout.o
 .ctors         0x000000000024d0b0        0x8 ./Process.o
 .ctors         0x000000000024d0b8        0x8 ./Program.o
 .ctors         0x000000000024d0c0        0x8 ./Wire.o
 .ctors         0x000000000024d0c8        0x8 ./Logging/EventLogger.o
 .ctors         0x000000000024d0d0        0x8 ./Logging/JsonLogProvider.o
 .ctors         0x000000000024d0d8        0x8 ./Logging/SysLogProvider.o

.fini_array
 *(SORT(.fini_array.*) SORT(.dtors.*))
 *(.fini_array)
 *(EXCLUDE_FILE(*crtend?.o *crtend.o *crtbegin?.o *crtbegin.o) .dtors)

.ctors          0x000000000024d0e0       0x10
 *crtbegin.o(.ctors)
 *crtbegin?.o(.ctors)
 .ctors         0x000000000024d0e0        0x8 /usr/lib/gcc/x86_64-linux-gnu/4.6/crtbeginS.o
 *(EXCLUDE_FILE(*crtend?.o *crtend.o) .ctors)
 *(SORT(.ctors.*))
 *(.ctors)
 .ctors         0x000000000024d0e8        0x8 /usr/lib/gcc/x86_64-linux-gnu/4.6/crtendS.o

.dtors          0x000000000024d0f0       0x10
 *crtbegin.o(.dtors)
 *crtbegin?.o(.dtors)
 .dtors         0x000000000024d0f0        0x8 /usr/lib/gcc/x86_64-linux-gnu/4.6/crtbeginS.o
 *(EXCLUDE_FILE(*crtend?.o *crtend.o) .dtors)
 *(SORT(.dtors.*))
 *(.dtors)
 .dtors         0x000000000024d0f8        0x8 /usr/lib/gcc/x86_64-linux-gnu/4.6/crtendS.o
                0x000000000024d0f8                __DTOR_END__

.jcr            0x000000000024d100        0x8
 *(.jcr)
 .jcr           0x000000000024d100        0x0 /usr/lib/gcc/x86_64-linux-gnu/4.6/crtbeginS.o
 .jcr           0x000000000024d100        0x8 /usr/lib/gcc/x86_64-linux-gnu/4.6/crtendS.o

.data.rel.ro    0x000000000024d120      0x9e8
 *(.data.rel.ro.local* .gnu.linkonce.d.rel.ro.local.*)
 .data.rel.ro.local
                0x000000000024d120        0x8 ./BaseDevice.o
 .data.rel.ro.local
                0x000000000024d128        0x8 ./BaseDriver.o
 .data.rel.ro.local
                0x000000000024d130        0x8 ./Command.o
 .data.rel.ro.local
                0x000000000024d138        0x8 ./Configuration.o
 .data.rel.ro.local
                0x000000000024d140        0x8 ./ConnectionPoint.o
 .data.rel.ro.local
                0x000000000024d148        0x8 ./Convert.o
 .data.rel.ro.local
                0x000000000024d150        0x8 ./DataSerializationManager.o
 .data.rel.ro.local
                0x000000000024d158        0x8 ./Event.o
 .data.rel.ro.local
                0x000000000024d160        0x8 ./InConnectionPoint.o
 .data.rel.ro.local
                0x000000000024d168        0x8 ./JsonParameters.o
 .data.rel.ro.local
                0x000000000024d170        0x8 ./LogEntry.o
 .data.rel.ro.local
                0x000000000024d178        0x8 ./OutConnectionPoint.o
 .data.rel.ro.local
                0x000000000024d180        0x8 ./Pinout.o
 .data.rel.ro.local
                0x000000000024d188        0x8 ./Process.o
 .data.rel.ro.local
                0x000000000024d190        0x8 ./Program.o
 .data.rel.ro.local
                0x000000000024d198        0x8 ./Logging/EventLogger.o
 .data.rel.ro.local
                0x000000000024d1a0        0x8 ./Logging/JsonLogProvider.o
 *(.data.rel.ro* .gnu.linkonce.d.rel.ro.*)
 *fill*         0x000000000024d1a8       0x18 00
 .data.rel.ro._ZTV10BaseDevice
                0x000000000024d1c0       0xd0 ./BaseDevice.o
                0x000000000024d1c0                _ZTV10BaseDevice
 *fill*         0x000000000024d290       0x10 00
 .data.rel.ro._ZTV9ErrorItem
                0x000000000024d2a0       0x20 ./BaseDevice.o
                0x000000000024d2a0                _ZTV9ErrorItem
 .data.rel.ro._ZTV13IRefreshValue
                0x000000000024d2c0       0x18 ./BaseDevice.o
                0x000000000024d2c0                _ZTV13IRefreshValue
 *fill*         0x000000000024d2d8        0x8 00
 .data.rel.ro._ZTV13IValueChanged
                0x000000000024d2e0       0x18 ./BaseDevice.o
                0x000000000024d2e0                _ZTV13IValueChanged
 *fill*         0x000000000024d2f8        0x8 00
 .data.rel.ro._ZTI10BaseDevice
                0x000000000024d300       0x38 ./BaseDevice.o
                0x000000000024d300                _ZTI10BaseDevice
 *fill*         0x000000000024d338        0x8 00
 .data.rel.ro._ZTI9ErrorItem
                0x000000000024d340       0x10 ./BaseDevice.o
                0x000000000024d340                _ZTI9ErrorItem
 .data.rel.ro._ZTI13IRefreshValue
                0x000000000024d350       0x10 ./BaseDevice.o
                0x000000000024d350                _ZTI13IRefreshValue
 .data.rel.ro._ZTI13IValueChanged
                0x000000000024d360       0x10 ./BaseDevice.o
                0x000000000024d360                _ZTI13IValueChanged
 *fill*         0x000000000024d370       0x10 00
 .data.rel.ro._ZTV10BaseDriver
                0x000000000024d380       0x70 ./BaseDriver.o
                0x000000000024d380                _ZTV10BaseDriver
 *fill*         0x000000000024d3f0       0x10 00
 .data.rel.ro._ZTV13DriverCommand
                0x000000000024d400       0x30 ./BaseDriver.o
                0x000000000024d400                _ZTV13DriverCommand
 .data.rel.ro._ZTI10BaseDriver
                0x000000000024d430       0x18 ./BaseDriver.o
                0x000000000024d430                _ZTI10BaseDriver
 *fill*         0x000000000024d448        0x8 00
 .data.rel.ro._ZTI13DriverCommand
                0x000000000024d450       0x10 ./BaseDriver.o
                0x000000000024d450                _ZTI13DriverCommand
 .data.rel.ro._ZTV7Command
                0x000000000024d460       0x28 ./Command.o
                0x000000000024d460                _ZTV7Command
 *fill*         0x000000000024d488        0x8 00
 .data.rel.ro._ZTI7Command
                0x000000000024d490       0x10 ./Command.o
                0x000000000024d490                _ZTI7Command
 .data.rel.ro._ZTV13Configuration
                0x000000000024d4a0       0x20 ./Configuration.o
                0x000000000024d4a0                _ZTV13Configuration
 .data.rel.ro._ZTI13Configuration
                0x000000000024d4c0       0x10 ./Configuration.o
                0x000000000024d4c0                _ZTI13Configuration
 *fill*         0x000000000024d4d0       0x10 00
 .data.rel.ro._ZTV15ConnectionPoint
                0x000000000024d4e0       0x50 ./ConnectionPoint.o
                0x000000000024d4e0                _ZTV15ConnectionPoint
 .data.rel.ro._ZTI15ConnectionPoint
                0x000000000024d530       0x10 ./ConnectionPoint.o
                0x000000000024d530                _ZTI15ConnectionPoint
 .data.rel.ro._ZTV24DataSerializationManager
                0x000000000024d540       0x20 ./DataSerializationManager.o
                0x000000000024d540                _ZTV24DataSerializationManager
 .data.rel.ro._ZTI24DataSerializationManager
                0x000000000024d560       0x10 ./DataSerializationManager.o
                0x000000000024d560                _ZTI24DataSerializationManager
 *fill*         0x000000000024d570       0x10 00
 .data.rel.ro._ZTV5Event
                0x000000000024d580       0x28 ./Event.o
                0x000000000024d580                _ZTV5Event
 *fill*         0x000000000024d5a8        0x8 00
 .data.rel.ro._ZTI5Event
                0x000000000024d5b0       0x10 ./Event.o
                0x000000000024d5b0                _ZTI5Event
 .data.rel.ro._ZTV17InConnectionPoint
                0x000000000024d5c0       0x50 ./InConnectionPoint.o
                0x000000000024d5c0                _ZTV17InConnectionPoint
 .data.rel.ro._ZTI17InConnectionPoint
                0x000000000024d610       0x18 ./InConnectionPoint.o
                0x000000000024d610                _ZTI17InConnectionPoint
 *fill*         0x000000000024d628       0x18 00
 .data.rel.ro._ZTV8LogEntry
                0x000000000024d640       0x20 ./LogEntry.o
                0x000000000024d640                _ZTV8LogEntry
 .data.rel.ro._ZTI8LogEntry
                0x000000000024d660       0x10 ./LogEntry.o
                0x000000000024d660                _ZTI8LogEntry
 *fill*         0x000000000024d670       0x10 00
 .data.rel.ro._ZTV18OutConnectionPoint
                0x000000000024d680       0x50 ./OutConnectionPoint.o
                0x000000000024d680                _ZTV18OutConnectionPoint
 .data.rel.ro._ZTI18OutConnectionPoint
                0x000000000024d6d0       0x18 ./OutConnectionPoint.o
                0x000000000024d6d0                _ZTI18OutConnectionPoint
 *fill*         0x000000000024d6e8       0x18 00
 .data.rel.ro._ZTV6Pinout
                0x000000000024d700       0x20 ./Pinout.o
                0x000000000024d700                _ZTV6Pinout
 .data.rel.ro._ZTI6Pinout
                0x000000000024d720       0x10 ./Pinout.o
                0x000000000024d720                _ZTI6Pinout
 *fill*         0x000000000024d730       0x10 00
 .data.rel.ro._ZTV7Process
                0x000000000024d740       0x30 ./Process.o
                0x000000000024d740                _ZTV7Process
 .data.rel.ro._ZTV13IErrorHandler
                0x000000000024d770       0x18 ./Process.o
                0x000000000024d770                _ZTV13IErrorHandler
 *fill*         0x000000000024d788        0x8 00
 .data.rel.ro._ZTI7Process
                0x000000000024d790       0x18 ./Process.o
                0x000000000024d790                _ZTI7Process
 *fill*         0x000000000024d7a8        0x8 00
 .data.rel.ro._ZTI13IErrorHandler
                0x000000000024d7b0       0x10 ./Process.o
                0x000000000024d7b0                _ZTI13IErrorHandler
 .data.rel.ro._ZTV7Program
                0x000000000024d7c0       0x20 ./Program.o
                0x000000000024d7c0                _ZTV7Program
 .data.rel.ro._ZTI7Program
                0x000000000024d7e0       0x10 ./Program.o
                0x000000000024d7e0                _ZTI7Program
 *fill*         0x000000000024d7f0       0x10 00
 .data.rel.ro._ZTV4Wire
                0x000000000024d800       0x48 ./Wire.o
                0x000000000024d800                _ZTV4Wire
 *fill*         0x000000000024d848       0x18 00
 .data.rel.ro._ZTI4Wire
                0x000000000024d860       0x38 ./Wire.o
                0x000000000024d860                _ZTI4Wire
 *fill*         0x000000000024d898        0x8 00
 .data.rel.ro._ZTV15BaseLogProvider
                0x000000000024d8a0       0x70 ./Logging/BaseLogProvider.o
                0x000000000024d8a0                _ZTV15BaseLogProvider
 .data.rel.ro._ZTI15BaseLogProvider
                0x000000000024d910       0x10 ./Logging/BaseLogProvider.o
                0x000000000024d910                _ZTI15BaseLogProvider
 .data.rel.ro._ZTV11EventLogger
                0x000000000024d920       0x60 ./Logging/EventLogger.o
                0x000000000024d920                _ZTV11EventLogger
 .data.rel.ro._ZTI11EventLogger
                0x000000000024d980       0x10 ./Logging/EventLogger.o
                0x000000000024d980                _ZTI11EventLogger
 *fill*         0x000000000024d990       0x10 00
 .data.rel.ro._ZTV15JsonLogProvider
                0x000000000024d9a0       0x70 ./Logging/JsonLogProvider.o
                0x000000000024d9a0                _ZTV15JsonLogProvider
 *fill*         0x000000000024da10       0x10 00
 .data.rel.ro._ZTI15JsonLogProvider
                0x000000000024da20       0x28 ./Logging/JsonLogProvider.o
                0x000000000024da20                _ZTI15JsonLogProvider
 *fill*         0x000000000024da48       0x18 00
 .data.rel.ro._ZTV14SysLogProvider
                0x000000000024da60       0x78 ./Logging/SysLogProvider.o
                0x000000000024da60                _ZTV14SysLogProvider
 *fill*         0x000000000024dad8        0x8 00
 .data.rel.ro._ZTI14SysLogProvider
                0x000000000024dae0       0x28 ./Logging/SysLogProvider.o
                0x000000000024dae0                _ZTI14SysLogProvider

.dynamic        0x000000000024db08      0x1c0
 *(.dynamic)
 .dynamic       0x000000000024db08      0x1c0 /usr/lib/gcc/x86_64-linux-gnu/4.6/../../../x86_64-linux-gnu/crti.o
                0x000000000024db08                _DYNAMIC

.got            0x000000000024dcc8      0x310
 *(.got)
 .got           0x000000000024dcc8      0x310 /usr/lib/gcc/x86_64-linux-gnu/4.6/../../../x86_64-linux-gnu/crti.o
 *(.igot)
                0x000000000024dfe8                . = DATA_SEGMENT_RELRO_END (., 0x18)

.got.plt        0x000000000024dfe8     0x1b08
 *(.got.plt)
 .got.plt       0x000000000024dfe8     0x1b08 /usr/lib/gcc/x86_64-linux-gnu/4.6/../../../x86_64-linux-gnu/crti.o
                0x000000000024dfe8                _GLOBAL_OFFSET_TABLE_
 *(.igot.plt)

.data           0x000000000024faf0       0x10
 *(.data .data.* .gnu.linkonce.d.*)
 .data          0x000000000024faf0        0x0 /usr/lib/gcc/x86_64-linux-gnu/4.6/../../../x86_64-linux-gnu/crti.o
 .data          0x000000000024faf0        0x0 /usr/lib/gcc/x86_64-linux-gnu/4.6/crtbeginS.o
 .data.rel      0x000000000024faf0        0x8 /usr/lib/gcc/x86_64-linux-gnu/4.6/crtbeginS.o
                0x000000000024faf0                __dso_handle
 .data          0x000000000024faf8        0x0 ./BaseDevice.o
 .data.DW.ref.__gxx_personality_v0
                0x000000000024faf8        0x8 ./BaseDevice.o
                0x000000000024faf8                DW.ref.__gxx_personality_v0
 .data          0x000000000024fb00        0x0 ./BaseDriver.o
 .data          0x000000000024fb00        0x0 ./Command.o
 .data          0x000000000024fb00        0x0 ./Configuration.o
 .data          0x000000000024fb00        0x0 ./ConnectionPoint.o
 .data          0x000000000024fb00        0x0 ./Convert.o
 .data          0x000000000024fb00        0x0 ./DataSerializationManager.o
 .data          0x000000000024fb00        0x0 ./Event.o
 .data          0x000000000024fb00        0x0 ./InConnectionPoint.o
 .data          0x000000000024fb00        0x0 ./JsonParameters.o
 .data          0x000000000024fb00        0x0 ./LogEntry.o
 .data          0x000000000024fb00        0x0 ./OutConnectionPoint.o
 .data          0x000000000024fb00        0x0 ./Pinout.o
 .data          0x000000000024fb00        0x0 ./Process.o
 .data          0x000000000024fb00        0x0 ./Program.o
 .data          0x000000000024fb00        0x0 ./Wire.o
 .data          0x000000000024fb00        0x0 ./Logging/BaseLogProvider.o
 .data          0x000000000024fb00        0x0 ./Logging/EventLogger.o
 .data          0x000000000024fb00        0x0 ./Logging/JsonLogProvider.o
 .data          0x000000000024fb00        0x0 ./Logging/SysLogProvider.o
 .data          0x000000000024fb00        0x0 /usr/lib/x86_64-linux-gnu/libc_nonshared.a(stat.oS)
 .data          0x000000000024fb00        0x0 /usr/lib/gcc/x86_64-linux-gnu/4.6/crtendS.o
 .data          0x000000000024fb00        0x0 /usr/lib/gcc/x86_64-linux-gnu/4.6/../../../x86_64-linux-gnu/crtn.o

.data1
 *(.data1)
                0x000000000024fb00                _edata = .
                0x000000000024fb00                PROVIDE (edata, .)
                0x000000000024fb00                __bss_start = .

.bss            0x000000000024fb00      0x280
 *(.dynbss)
 .dynbss        0x0000000000000000        0x0 /usr/lib/gcc/x86_64-linux-gnu/4.6/../../../x86_64-linux-gnu/crti.o
 *(.bss .bss.* .gnu.linkonce.b.*)
 .bss           0x000000000024fb00        0x0 /usr/lib/gcc/x86_64-linux-gnu/4.6/../../../x86_64-linux-gnu/crti.o
 .bss           0x000000000024fb00       0x10 /usr/lib/gcc/x86_64-linux-gnu/4.6/crtbeginS.o
 .bss           0x000000000024fb10        0x1 ./BaseDevice.o
 *fill*         0x000000000024fb11        0x3 00
 .bss           0x000000000024fb14        0x1 ./BaseDriver.o
 *fill*         0x000000000024fb15        0x3 00
 .bss           0x000000000024fb18        0x1 ./Command.o
 *fill*         0x000000000024fb19        0x7 00
 .bss           0x000000000024fb20        0x9 ./Configuration.o
                0x000000000024fb20                _ZN13Configuration8instanceE
 *fill*         0x000000000024fb29        0x3 00
 .bss           0x000000000024fb2c        0x1 ./ConnectionPoint.o
 *fill*         0x000000000024fb2d        0x3 00
 .bss           0x000000000024fb30        0x1 ./Convert.o
 *fill*         0x000000000024fb31        0x3 00
 .bss           0x000000000024fb34        0x1 ./DataSerializationManager.o
 *fill*         0x000000000024fb35        0x3 00
 .bss           0x000000000024fb38        0x1 ./Event.o
 *fill*         0x000000000024fb39        0x3 00
 .bss           0x000000000024fb3c        0x1 ./InConnectionPoint.o
 *fill*         0x000000000024fb3d        0x3 00
 .bss           0x000000000024fb40      0x210 ./JsonParameters.o
                0x000000000024fb40                _ZN14JsonParameters4NameE
                0x000000000024fb48                _ZN14JsonParameters11DisplayNameE
                0x000000000024fb50                _ZN14JsonParameters13CmdParametersE
                0x000000000024fb58                _ZN14JsonParameters7CommandE
                0x000000000024fb60                _ZN14JsonParameters8CommandsE
                0x000000000024fb68                _ZN14JsonParameters5EventE
                0x000000000024fb70                _ZN14JsonParameters6EventsE
                0x000000000024fb78                _ZN14JsonParameters15EventParametersE
                0x000000000024fb80                _ZN14JsonParameters3KeyE
                0x000000000024fb88                _ZN14JsonParameters8DataTypeE
                0x000000000024fb90                _ZN14JsonParameters5ValueE
                0x000000000024fb98                _ZN14JsonParameters6DriverE
                0x000000000024fba0                _ZN14JsonParameters7ProgramE
                0x000000000024fba8                _ZN14JsonParameters7MappingE
                0x000000000024fbb0                _ZN14JsonParameters5WiresE
                0x000000000024fbb8                _ZN14JsonParameters4WireE
                0x000000000024fbc0                _ZN14JsonParameters7DevicesE
                0x000000000024fbc8                _ZN14JsonParameters6DeviceE
                0x000000000024fbd0                _ZN14JsonParameters10DeviceTypeE
                0x000000000024fbd8                _ZN14JsonParameters9PowerWireE
                0x000000000024fbe0                _ZN14JsonParameters16ConnectionPointsE
                0x000000000024fbe8                _ZN14JsonParameters23UpcbWireConnectionPointE
                0x000000000024fbf0                _ZN14JsonParameters2IdE
                0x000000000024fbf8                _ZN14JsonParameters9ProjectIdE
                0x000000000024fc00                _ZN14JsonParameters18ProgramDescriptionE
                0x000000000024fc08                _ZN14JsonParameters14CommandMappingE
                0x000000000024fc10                _ZN14JsonParameters12EventMappingE
                0x000000000024fc18                _ZN14JsonParameters6SourceE
                0x000000000024fc20                _ZN14JsonParameters6TargetE
                0x000000000024fc28                _ZN14JsonParameters10ParametersE
                0x000000000024fc30                _ZN14JsonParameters10DriverTypeE
                0x000000000024fc38                _ZN14JsonParameters8PinoutIdE
                0x000000000024fc40                _ZN14JsonParameters8DeviceIdE
                0x000000000024fc48                _ZN14JsonParameters17ConnectionPointIdE
                0x000000000024fc50                _ZN14JsonParameters15ParameterSourceE
                0x000000000024fc58                _ZN14JsonParameters15ParameterTargetE
                0x000000000024fc60                _ZN14JsonParameters11ProgramNameE
                0x000000000024fc68                _ZN14JsonParameters9ProgramIdE
                0x000000000024fc70                _ZN14JsonParameters16ProgramAutoStartE
                0x000000000024fc78                _ZN14JsonParameters16ProgramIsRunningE
                0x000000000024fc80                _ZN14JsonParameters22DeviceConnectionPointsE
                0x000000000024fc88                _ZN14JsonParameters15ConnectionPointE
                0x000000000024fc90                _ZN14JsonParameters20ConnectionPointValueE
                0x000000000024fc98                _ZN14JsonParameters9DirectionE
                0x000000000024fca0                _ZN14JsonParameters7PinoutsE
                0x000000000024fca8                _ZN14JsonParameters6PinoutE
                0x000000000024fcb0                _ZN14JsonParameters9ParameterE
                0x000000000024fcb8                _ZN14JsonParameters11DescriptionE
                0x000000000024fcc0                _ZN14JsonParameters20InConnPointDirectionE
                0x000000000024fcc8                _ZN14JsonParameters21OutConnPointDirectionE
                0x000000000024fcd0                _ZN14JsonParameters16DevicePropertiesE
                0x000000000024fcd8                _ZN14JsonParameters17DevicePropertyKeyE
                0x000000000024fce0                _ZN14JsonParameters19DevicePropertyValueE
                0x000000000024fce8                _ZN14JsonParameters18DevicePropertyTypeE
                0x000000000024fcf0                _ZN14JsonParameters25DevicePropertyDescriptionE
                0x000000000024fcf8                _ZN14JsonParameters14ConnPointLabelE
                0x000000000024fd00                _ZN14JsonParameters12CustomDeviceE
                0x000000000024fd08                _ZN14JsonParameters16CustomDeviceNameE
                0x000000000024fd10                _ZN14JsonParameters20CustomDeviceBaseTypeE
                0x000000000024fd18                _ZN14JsonParameters22CustomDeviceAddOnPropsE
                0x000000000024fd20                _ZN14JsonParameters15OperationStatusE
                0x000000000024fd28                _ZN14JsonParameters9ErrorCodeE
                0x000000000024fd30                _ZN14JsonParameters12ErrorMessageE
                0x000000000024fd38                _ZN14JsonParameters11SettingNameE
                0x000000000024fd40                _ZN14JsonParameters15SettingDataTypeE
                0x000000000024fd48                _ZN14JsonParameters12SettingValueE
 .bss           0x000000000024fd50        0x1 ./LogEntry.o
 *fill*         0x000000000024fd51        0x3 00
 .bss           0x000000000024fd54        0x1 ./OutConnectionPoint.o
 *fill*         0x000000000024fd55        0x3 00
 .bss           0x000000000024fd58        0x1 ./Pinout.o
 *fill*         0x000000000024fd59        0x3 00
 .bss           0x000000000024fd5c        0x1 ./Process.o
 *fill*         0x000000000024fd5d        0x3 00
 .bss           0x000000000024fd60        0x1 ./Program.o
 *fill*         0x000000000024fd61        0x3 00
 .bss           0x000000000024fd64        0x1 ./Wire.o
 *fill*         0x000000000024fd65        0x3 00
 .bss           0x000000000024fd68        0x0 ./Logging/BaseLogProvider.o
 .bss           0x000000000024fd68        0x9 ./Logging/EventLogger.o
                0x000000000024fd68                _ZN11EventLogger8instanceE
 *fill*         0x000000000024fd71        0x3 00
 .bss           0x000000000024fd74        0x1 ./Logging/JsonLogProvider.o
 *fill*         0x000000000024fd75        0x3 00
 .bss           0x000000000024fd78        0x1 ./Logging/SysLogProvider.o
 *fill*         0x000000000024fd79        0x3 00
 .bss           0x000000000024fd7c        0x0 /usr/lib/x86_64-linux-gnu/libc_nonshared.a(stat.oS)
 .bss           0x000000000024fd7c        0x0 /usr/lib/gcc/x86_64-linux-gnu/4.6/crtendS.o
 .bss           0x000000000024fd7c        0x0 /usr/lib/gcc/x86_64-linux-gnu/4.6/../../../x86_64-linux-gnu/crtn.o
 *(COMMON)
                0x000000000024fd80                . = ALIGN ((. != 0x0)?0x8:0x1)
 *fill*         0x000000000024fd7c        0x4 00

.lbss
 *(.dynlbss)
 *(.lbss .lbss.* .gnu.linkonce.lb.*)
 *(LARGE_COMMON)
                0x000000000024fd80                . = ALIGN (0x8)

.lrodata
 *(.lrodata .lrodata.* .gnu.linkonce.lr.*)

.ldata          0x000000000064fd80        0x0
 *(.ldata .ldata.* .gnu.linkonce.l.*)
                0x000000000064fd80                . = ALIGN ((. != 0x0)?0x8:0x1)
                0x000000000064fd80                . = ALIGN (0x8)
                0x000000000064fd80                _end = .
                0x000000000064fd80                PROVIDE (end, .)
                0x000000000064fd80                . = DATA_SEGMENT_END (.)

.stab
 *(.stab)

.stabstr
 *(.stabstr)

.stab.excl
 *(.stab.excl)

.stab.exclstr
 *(.stab.exclstr)

.stab.index
 *(.stab.index)

.stab.indexstr
 *(.stab.indexstr)

.comment        0x0000000000000000       0x2a
 *(.comment)
 .comment       0x0000000000000000       0x2a /usr/lib/gcc/x86_64-linux-gnu/4.6/crtbeginS.o
                                         0x2b (size before relaxing)
 .comment       0x0000000000000000       0x2b ./BaseDevice.o
 .comment       0x0000000000000000       0x2b ./BaseDriver.o
 .comment       0x0000000000000000       0x2b ./Command.o
 .comment       0x0000000000000000       0x2b ./Configuration.o
 .comment       0x0000000000000000       0x2b ./ConnectionPoint.o
 .comment       0x0000000000000000       0x2b ./Convert.o
 .comment       0x0000000000000000       0x2b ./DataSerializationManager.o
 .comment       0x0000000000000000       0x2b ./Event.o
 .comment       0x0000000000000000       0x2b ./InConnectionPoint.o
 .comment       0x0000000000000000       0x2b ./JsonParameters.o
 .comment       0x0000000000000000       0x2b ./LogEntry.o
 .comment       0x0000000000000000       0x2b ./OutConnectionPoint.o
 .comment       0x0000000000000000       0x2b ./Pinout.o
 .comment       0x0000000000000000       0x2b ./Process.o
 .comment       0x0000000000000000       0x2b ./Program.o
 .comment       0x0000000000000000       0x2b ./Wire.o
 .comment       0x0000000000000000       0x2b ./Logging/BaseLogProvider.o
 .comment       0x0000000000000000       0x2b ./Logging/EventLogger.o
 .comment       0x0000000000000000       0x2b ./Logging/JsonLogProvider.o
 .comment       0x0000000000000000       0x2b ./Logging/SysLogProvider.o
 .comment       0x0000000000000000       0x2b /usr/lib/x86_64-linux-gnu/libc_nonshared.a(stat.oS)
 .comment       0x0000000000000000       0x2b /usr/lib/gcc/x86_64-linux-gnu/4.6/crtendS.o

.debug
 *(.debug)

.line
 *(.line)

.debug_srcinfo
 *(.debug_srcinfo)

.debug_sfnames
 *(.debug_sfnames)

.debug_aranges  0x0000000000000000     0x4350
 *(.debug_aranges)
 .debug_aranges
                0x0000000000000000      0x970 ./BaseDevice.o
 .debug_aranges
                0x0000000000000970      0x560 ./BaseDriver.o
 .debug_aranges
                0x0000000000000ed0      0x3d0 ./Command.o
 .debug_aranges
                0x00000000000012a0      0x590 ./Configuration.o
 .debug_aranges
                0x0000000000001830       0x70 ./ConnectionPoint.o
 .debug_aranges
                0x00000000000018a0       0x60 ./Convert.o
 .debug_aranges
                0x0000000000001900       0x30 ./DataSerializationManager.o
 .debug_aranges
                0x0000000000001930      0x3b0 ./Event.o
 .debug_aranges
                0x0000000000001ce0       0x30 ./InConnectionPoint.o
 .debug_aranges
                0x0000000000001d10       0x30 ./JsonParameters.o
 .debug_aranges
                0x0000000000001d40       0x30 ./LogEntry.o
 .debug_aranges
                0x0000000000001d70       0x30 ./OutConnectionPoint.o
 .debug_aranges
                0x0000000000001da0      0xc10 ./Pinout.o
 .debug_aranges
                0x00000000000029b0      0x6f0 ./Process.o
 .debug_aranges
                0x00000000000030a0      0x4c0 ./Program.o
 .debug_aranges
                0x0000000000003560      0x320 ./Wire.o
 .debug_aranges
                0x0000000000003880       0x30 ./Logging/BaseLogProvider.o
 .debug_aranges
                0x00000000000038b0      0x6f0 ./Logging/EventLogger.o
 .debug_aranges
                0x0000000000003fa0      0x380 ./Logging/JsonLogProvider.o
 .debug_aranges
                0x0000000000004320       0x30 ./Logging/SysLogProvider.o

.debug_pubnames
 *(.debug_pubnames)

.debug_info     0x0000000000000000    0x71497
 *(.debug_info .gnu.linkonce.wi.*)
 .debug_info    0x0000000000000000     0xcf90 ./BaseDevice.o
 .debug_info    0x000000000000cf90     0x7763 ./BaseDriver.o
 .debug_info    0x00000000000146f3     0x5f32 ./Command.o
 .debug_info    0x000000000001a625     0x7528 ./Configuration.o
 .debug_info    0x0000000000021b4d     0x3e8e ./ConnectionPoint.o
 .debug_info    0x00000000000259db     0x3802 ./Convert.o
 .debug_info    0x00000000000291dd     0x3927 ./DataSerializationManager.o
 .debug_info    0x000000000002cb04     0x5e48 ./Event.o
 .debug_info    0x000000000003294c     0x36b6 ./InConnectionPoint.o
 .debug_info    0x0000000000036002     0x3412 ./JsonParameters.o
 .debug_info    0x0000000000039414     0x3140 ./LogEntry.o
 .debug_info    0x000000000003c554     0x36cf ./OutConnectionPoint.o
 .debug_info    0x000000000003fc23     0xc2e3 ./Pinout.o
 .debug_info    0x000000000004bf06     0x9a64 ./Process.o
 .debug_info    0x000000000005596a     0x74ba ./Program.o
 .debug_info    0x000000000005ce24     0x4157 ./Wire.o
 .debug_info    0x0000000000060f7b      0x338 ./Logging/BaseLogProvider.o
 .debug_info    0x00000000000612b3     0x8bfc ./Logging/EventLogger.o
 .debug_info    0x0000000000069eaf     0x5ca8 ./Logging/JsonLogProvider.o
 .debug_info    0x000000000006fb57     0x1940 ./Logging/SysLogProvider.o

.debug_abbrev   0x0000000000000000     0x80eb
 *(.debug_abbrev)
 .debug_abbrev  0x0000000000000000      0x8be ./BaseDevice.o
 .debug_abbrev  0x00000000000008be      0x706 ./BaseDriver.o
 .debug_abbrev  0x0000000000000fc4      0x73a ./Command.o
 .debug_abbrev  0x00000000000016fe      0x7ae ./Configuration.o
 .debug_abbrev  0x0000000000001eac      0x6b3 ./ConnectionPoint.o
 .debug_abbrev  0x000000000000255f      0x598 ./Convert.o
 .debug_abbrev  0x0000000000002af7      0x5bf ./DataSerializationManager.o
 .debug_abbrev  0x00000000000030b6      0x753 ./Event.o
 .debug_abbrev  0x0000000000003809      0x626 ./InConnectionPoint.o
 .debug_abbrev  0x0000000000003e2f      0x4a4 ./JsonParameters.o
 .debug_abbrev  0x00000000000042d3      0x5a2 ./LogEntry.o
 .debug_abbrev  0x0000000000004875      0x62d ./OutConnectionPoint.o
 .debug_abbrev  0x0000000000004ea2      0x7a1 ./Pinout.o
 .debug_abbrev  0x0000000000005643      0x846 ./Process.o
 .debug_abbrev  0x0000000000005e89      0x7a7 ./Program.o
 .debug_abbrev  0x0000000000006630      0x6e0 ./Wire.o
 .debug_abbrev  0x0000000000006d10      0x13e ./Logging/BaseLogProvider.o
 .debug_abbrev  0x0000000000006e4e      0x7d7 ./Logging/EventLogger.o
 .debug_abbrev  0x0000000000007625      0x704 ./Logging/JsonLogProvider.o
 .debug_abbrev  0x0000000000007d29      0x3c2 ./Logging/SysLogProvider.o

.debug_line     0x0000000000000000    0x13678
 *(.debug_line)
 .debug_line    0x0000000000000000     0x1f2b ./BaseDevice.o
 .debug_line    0x0000000000001f2b     0x11b8 ./BaseDriver.o
 .debug_line    0x00000000000030e3     0x10fc ./Command.o
 .debug_line    0x00000000000041df     0x1428 ./Configuration.o
 .debug_line    0x0000000000005607      0xb3c ./ConnectionPoint.o
 .debug_line    0x0000000000006143      0xaa0 ./Convert.o
 .debug_line    0x0000000000006be3      0x95b ./DataSerializationManager.o
 .debug_line    0x000000000000753e      0xfe7 ./Event.o
 .debug_line    0x0000000000008525      0xaa4 ./InConnectionPoint.o
 .debug_line    0x0000000000008fc9      0x876 ./JsonParameters.o
 .debug_line    0x000000000000983f      0x787 ./LogEntry.o
 .debug_line    0x0000000000009fc6      0xaa9 ./OutConnectionPoint.o
 .debug_line    0x000000000000aa6f     0x1f10 ./Pinout.o
 .debug_line    0x000000000000c97f     0x1a2a ./Process.o
 .debug_line    0x000000000000e3a9     0x136e ./Program.o
 .debug_line    0x000000000000f717     0x1017 ./Wire.o
 .debug_line    0x000000000001072e       0x78 ./Logging/BaseLogProvider.o
 .debug_line    0x00000000000107a6     0x1605 ./Logging/EventLogger.o
 .debug_line    0x0000000000011dab     0x10a6 ./Logging/JsonLogProvider.o
 .debug_line    0x0000000000012e51      0x827 ./Logging/SysLogProvider.o

.debug_frame
 *(.debug_frame)

.debug_str      0x0000000000000000    0x1c6bd
 *(.debug_str)
 .debug_str     0x0000000000000000     0x8f99 ./BaseDevice.o
                                       0x9562 (size before relaxing)
 .debug_str     0x0000000000008f99     0x275a ./BaseDriver.o
                                       0x4ea5 (size before relaxing)
 .debug_str     0x000000000000b6f3     0x1a05 ./Command.o
                                       0x4157 (size before relaxing)
 .debug_str     0x000000000000d0f8     0x46f8 ./Configuration.o
                                       0x6d01 (size before relaxing)
 .debug_str     0x00000000000117f0      0x47c ./ConnectionPoint.o
                                       0x283d (size before relaxing)
 .debug_str     0x0000000000011c6c      0x2c3 ./Convert.o
                                       0x256b (size before relaxing)
 .debug_str     0x0000000000011f2f      0x280 ./DataSerializationManager.o
                                       0x24f9 (size before relaxing)
 .debug_str     0x00000000000121af      0x631 ./Event.o
                                       0x3ece (size before relaxing)
 .debug_str     0x00000000000127e0      0x18e ./InConnectionPoint.o
                                       0x23fe (size before relaxing)
 .debug_str     0x000000000001296e      0xb94 ./JsonParameters.o
                                       0x29e1 (size before relaxing)
 .debug_str     0x0000000000013502       0xc8 ./LogEntry.o
                                       0x20b2 (size before relaxing)
 .debug_str     0x00000000000135ca      0x190 ./OutConnectionPoint.o
                                       0x2410 (size before relaxing)
 .debug_str     0x000000000001375a      0x389 ./Pinout.o
                                       0x7a94 (size before relaxing)
 .debug_str     0x0000000000013ae3     0x26aa ./Process.o
                                       0x6a0d (size before relaxing)
 .debug_str     0x000000000001618d     0x10b0 ./Program.o
                                       0x487f (size before relaxing)
 .debug_str     0x000000000001723d      0x3a0 ./Wire.o
                                       0x29a5 (size before relaxing)
 .debug_str     0x00000000000175dd      0x236 ./Logging/BaseLogProvider.o
                                        0x2a4 (size before relaxing)
 .debug_str     0x0000000000017813     0x4605 ./Logging/EventLogger.o
                                       0x70ee (size before relaxing)
 .debug_str     0x000000000001be18      0x6b8 ./Logging/JsonLogProvider.o
                                       0x3f01 (size before relaxing)
 .debug_str     0x000000000001c4d0      0x1ed ./Logging/SysLogProvider.o
                                        0xcc3 (size before relaxing)

.debug_loc      0x0000000000000000    0x1eb78
 *(.debug_loc)
 .debug_loc     0x0000000000000000     0x44a4 ./BaseDevice.o
 .debug_loc     0x00000000000044a4     0x219c ./BaseDriver.o
 .debug_loc     0x0000000000006640     0x1b2c ./Command.o
 .debug_loc     0x000000000000816c     0x25e8 ./Configuration.o
 .debug_loc     0x000000000000a754      0xbdc ./ConnectionPoint.o
 .debug_loc     0x000000000000b330      0x618 ./Convert.o
 .debug_loc     0x000000000000b948      0x360 ./DataSerializationManager.o
 .debug_loc     0x000000000000bca8     0x1acc ./Event.o
 .debug_loc     0x000000000000d774      0x4bc ./InConnectionPoint.o
 .debug_loc     0x000000000000dc30       0xc0 ./JsonParameters.o
 .debug_loc     0x000000000000dcf0      0x374 ./LogEntry.o
 .debug_loc     0x000000000000e064      0x4bc ./OutConnectionPoint.o
 .debug_loc     0x000000000000e520     0x4da8 ./Pinout.o
 .debug_loc     0x00000000000132c8     0x2e38 ./Process.o
 .debug_loc     0x0000000000016100     0x2178 ./Program.o
 .debug_loc     0x0000000000018278     0x1684 ./Wire.o
 .debug_loc     0x00000000000198fc      0x120 ./Logging/BaseLogProvider.o
 .debug_loc     0x0000000000019a1c     0x302c ./Logging/EventLogger.o
 .debug_loc     0x000000000001ca48     0x1b30 ./Logging/JsonLogProvider.o
 .debug_loc     0x000000000001e578      0x600 ./Logging/SysLogProvider.o

.debug_macinfo  0x0000000000000000   0x12130d
 *(.debug_macinfo)
 .debug_macinfo
                0x0000000000000000    0x1061c ./BaseDevice.o
 .debug_macinfo
                0x000000000001061c     0xe437 ./BaseDriver.o
 .debug_macinfo
                0x000000000001ea53     0xec4b ./Command.o
 .debug_macinfo
                0x000000000002d69e     0xf74d ./Configuration.o
 .debug_macinfo
                0x000000000003cdeb     0xfda4 ./ConnectionPoint.o
 .debug_macinfo
                0x000000000004cb8f     0xf258 ./Convert.o
 .debug_macinfo
                0x000000000005bde7     0xf76e ./DataSerializationManager.o
 .debug_macinfo
                0x000000000006b555     0xe62b ./Event.o
 .debug_macinfo
                0x0000000000079b80     0xfdad ./InConnectionPoint.o
 .debug_macinfo
                0x000000000008992d     0xcf1f ./JsonParameters.o
 .debug_macinfo
                0x000000000009684c     0xd2cb ./LogEntry.o
 .debug_macinfo
                0x00000000000a3b17     0xfdc6 ./OutConnectionPoint.o
 .debug_macinfo
                0x00000000000b38dd     0xeccc ./Pinout.o
 .debug_macinfo
                0x00000000000c25a9    0x107d0 ./Process.o
 .debug_macinfo
                0x00000000000d2d79    0x107a9 ./Program.o
 .debug_macinfo
                0x00000000000e3522    0x1008e ./Wire.o
 .debug_macinfo
                0x00000000000f35b0     0x1849 ./Logging/BaseLogProvider.o
 .debug_macinfo
                0x00000000000f4df9     0xeb4e ./Logging/EventLogger.o
 .debug_macinfo
                0x0000000000103947     0xf1bd ./Logging/JsonLogProvider.o
 .debug_macinfo
                0x0000000000112b04     0xe809 ./Logging/SysLogProvider.o

.debug_weaknames
 *(.debug_weaknames)

.debug_funcnames
 *(.debug_funcnames)

.debug_typenames
 *(.debug_typenames)

.debug_varnames
 *(.debug_varnames)

.debug_pubtypes
 *(.debug_pubtypes)

.debug_ranges   0x0000000000000000     0x5150
 *(.debug_ranges)
 .debug_ranges  0x0000000000000000      0xae0 ./BaseDevice.o
 .debug_ranges  0x0000000000000ae0      0x610 ./BaseDriver.o
 .debug_ranges  0x00000000000010f0      0x510 ./Command.o
 .debug_ranges  0x0000000000001600      0x6a0 ./Configuration.o
 .debug_ranges  0x0000000000001ca0       0x90 ./ConnectionPoint.o
 .debug_ranges  0x0000000000001d30      0x170 ./Convert.o
 .debug_ranges  0x0000000000001ea0       0x60 ./DataSerializationManager.o
 .debug_ranges  0x0000000000001f00      0x520 ./Event.o
 .debug_ranges  0x0000000000002420       0x30 ./InConnectionPoint.o
 .debug_ranges  0x0000000000002450       0x30 ./OutConnectionPoint.o
 .debug_ranges  0x0000000000002480      0xe40 ./Pinout.o
 .debug_ranges  0x00000000000032c0      0x860 ./Process.o
 .debug_ranges  0x0000000000003b20      0x5d0 ./Program.o
 .debug_ranges  0x00000000000040f0      0x400 ./Wire.o
 .debug_ranges  0x00000000000044f0      0x800 ./Logging/EventLogger.o
 .debug_ranges  0x0000000000004cf0      0x460 ./Logging/JsonLogProvider.o

.gnu.attributes
 *(.gnu.attributes)

/DISCARD/
 *(.note.GNU-stack)
 *(.gnu_debuglink)
 *(.gnu.lto_*)
OUTPUT(libCommon.so elf64-x86-64)
