Archive member included because of file (symbol)

/usr/lib/arm-linux-gnueabihf/libc_nonshared.a(elf-init.oS)
                              /usr/lib/gcc/arm-linux-gnueabihf/4.6/../../../arm-linux-gnueabihf/crt1.o (__libc_csu_init)

Discarded input sections

 .note.GNU-stack
                0x00000000        0x0 /usr/lib/gcc/arm-linux-gnueabihf/4.6/../../../arm-linux-gnueabihf/crt1.o
 .gnu_debuglink
                0x00000000        0xc /usr/lib/gcc/arm-linux-gnueabihf/4.6/../../../arm-linux-gnueabihf/crt1.o
 .note.GNU-stack
                0x00000000        0x0 /usr/lib/gcc/arm-linux-gnueabihf/4.6/../../../arm-linux-gnueabihf/crti.o
 .gnu_debuglink
                0x00000000        0xc /usr/lib/gcc/arm-linux-gnueabihf/4.6/../../../arm-linux-gnueabihf/crti.o
 .note.GNU-stack
                0x00000000        0x0 /usr/lib/gcc/arm-linux-gnueabihf/4.6/crtbegin.o
 .note.GNU-stack
                0x00000000        0x0 ./agilartRT.o
 .note.GNU-stack
                0x00000000        0x0 ./WebServer/mongoose.o
 .group         0x00000000       0x10 ./WebServer/WebServer.o
 .group         0x00000000       0x10 ./WebServer/WebServer.o
 .group         0x00000000       0x10 ./WebServer/WebServer.o
 .group         0x00000000       0x10 ./WebServer/WebServer.o
 .group         0x00000000       0x10 ./WebServer/WebServer.o
 .group         0x00000000       0x10 ./WebServer/WebServer.o
 .group         0x00000000       0x10 ./WebServer/WebServer.o
 .group         0x00000000       0x10 ./WebServer/WebServer.o
 .group         0x00000000       0x10 ./WebServer/WebServer.o
 .group         0x00000000       0x10 ./WebServer/WebServer.o
 .note.GNU-stack
                0x00000000        0x0 ./WebServer/WebServer.o
 .note.GNU-stack
                0x00000000        0x0 ./DaemonUtils/DaemonService.o
 .group         0x00000000       0x10 ./Common/ProgramManager.o
 .group         0x00000000       0x10 ./Common/ProgramManager.o
 .group         0x00000000       0x10 ./Common/ProgramManager.o
 .group         0x00000000       0x10 ./Common/ProgramManager.o
 .group         0x00000000       0x10 ./Common/ProgramManager.o
 .group         0x00000000       0x10 ./Common/ProgramManager.o
 .group         0x00000000       0x10 ./Common/ProgramManager.o
 .group         0x00000000       0x10 ./Common/ProgramManager.o
 .group         0x00000000       0x10 ./Common/ProgramManager.o
 .group         0x00000000       0x10 ./Common/ProgramManager.o
 .group         0x00000000       0x10 ./Common/ProgramManager.o
 .group         0x00000000       0x10 ./Common/ProgramManager.o
 .group         0x00000000       0x10 ./Common/ProgramManager.o
 .group         0x00000000       0x10 ./Common/ProgramManager.o
 .group         0x00000000        0x8 ./Common/ProgramManager.o
 .group         0x00000000        0x8 ./Common/ProgramManager.o
 .group         0x00000000        0x8 ./Common/ProgramManager.o
 .text._ZStplIcSt11char_traitsIcESaIcEESbIT_T0_T1_EPKS3_RKS6_
                0x00000000       0x6c ./Common/ProgramManager.o
 .ARM.extab.text._ZStplIcSt11char_traitsIcESaIcEESbIT_T0_T1_EPKS3_RKS6_
                0x00000000       0x14 ./Common/ProgramManager.o
 .ARM.exidx.text._ZStplIcSt11char_traitsIcESaIcEESbIT_T0_T1_EPKS3_RKS6_
                0x00000000        0x8 ./Common/ProgramManager.o
 .text._ZStplIcSt11char_traitsIcESaIcEESbIT_T0_T1_ERKS6_S8_
                0x00000000       0x30 ./Common/ProgramManager.o
 .ARM.extab.text._ZStplIcSt11char_traitsIcESaIcEESbIT_T0_T1_ERKS6_S8_
                0x00000000       0x18 ./Common/ProgramManager.o
 .ARM.exidx.text._ZStplIcSt11char_traitsIcESaIcEESbIT_T0_T1_ERKS6_S8_
                0x00000000        0x8 ./Common/ProgramManager.o
 .note.GNU-stack
                0x00000000        0x0 ./Common/ProgramManager.o
 .group         0x00000000       0x1c ./Common/UpcbJsonParser.o
 .group         0x00000000        0x8 ./Common/UpcbJsonParser.o
 .group         0x00000000        0x8 ./Common/UpcbJsonParser.o
 .group         0x00000000        0x8 ./Common/UpcbJsonParser.o
 .note.GNU-stack
                0x00000000        0x0 ./Common/UpcbJsonParser.o
 .group         0x00000000       0x10 ./Common/Mappings/MappingManager.o
 .group         0x00000000       0x10 ./Common/Mappings/MappingManager.o
 .group         0x00000000       0x10 ./Common/Mappings/MappingManager.o
 .group         0x00000000       0x10 ./Common/Mappings/MappingManager.o
 .group         0x00000000       0x10 ./Common/Mappings/MappingManager.o
 .group         0x00000000       0x10 ./Common/Mappings/MappingManager.o
 .group         0x00000000       0x10 ./Common/Mappings/MappingManager.o
 .group         0x00000000       0x10 ./Common/Mappings/MappingManager.o
 .group         0x00000000       0x10 ./Common/Mappings/MappingManager.o
 .group         0x00000000       0x10 ./Common/Mappings/MappingManager.o
 .group         0x00000000       0x10 ./Common/Mappings/MappingManager.o
 .group         0x00000000       0x10 ./Common/Mappings/MappingManager.o
 .group         0x00000000       0x10 ./Common/Mappings/MappingManager.o
 .group         0x00000000       0x10 ./Common/Mappings/MappingManager.o
 .group         0x00000000       0x10 ./Common/Mappings/MappingManager.o
 .group         0x00000000       0x10 ./Common/Mappings/MappingManager.o
 .group         0x00000000       0x10 ./Common/Mappings/MappingManager.o
 .group         0x00000000       0x10 ./Common/Mappings/MappingManager.o
 .group         0x00000000       0x10 ./Common/Mappings/MappingManager.o
 .group         0x00000000       0x10 ./Common/Mappings/MappingManager.o
 .note.GNU-stack
                0x00000000        0x0 ./Common/Mappings/MappingManager.o
 .note.GNU-stack
                0x00000000        0x0 ./Common/Mappings/PinoutMapping.o
 .note.GNU-stack
                0x00000000        0x0 ./Common/Mappings/ProgramMapping.o
 .note.GNU-stack
                0x00000000        0x0 ./Common/Drivers/BaseDriversProvider.o
 .group         0x00000000       0x10 ./Common/Drivers/DriversManager.o
 .group         0x00000000       0x10 ./Common/Drivers/DriversManager.o
 .note.GNU-stack
                0x00000000        0x0 ./Common/Drivers/DriversManager.o
 .group         0x00000000       0x10 ./Common/Drivers/PluggableDriversProvider.o
 .group         0x00000000       0x10 ./Common/Drivers/PluggableDriversProvider.o
 .group         0x00000000       0x10 ./Common/Drivers/PluggableDriversProvider.o
 .group         0x00000000       0x10 ./Common/Drivers/PluggableDriversProvider.o
 .group         0x00000000       0x10 ./Common/Drivers/PluggableDriversProvider.o
 .group         0x00000000       0x10 ./Common/Drivers/PluggableDriversProvider.o
 .text._ZNSt4listIP10BaseDriverSaIS1_EED2Ev
                0x00000000       0x30 ./Common/Drivers/PluggableDriversProvider.o
 .ARM.extab.text._ZNSt4listIP10BaseDriverSaIS1_EED2Ev
                0x00000000        0x0 ./Common/Drivers/PluggableDriversProvider.o
 .ARM.exidx.text._ZNSt4listIP10BaseDriverSaIS1_EED2Ev
                0x00000000        0x8 ./Common/Drivers/PluggableDriversProvider.o
 .text._ZNSt4listIP10BaseDriverSaIS1_EEaSERKS3_
                0x00000000      0x128 ./Common/Drivers/PluggableDriversProvider.o
 .ARM.extab.text._ZNSt4listIP10BaseDriverSaIS1_EEaSERKS3_
                0x00000000       0x18 ./Common/Drivers/PluggableDriversProvider.o
 .ARM.exidx.text._ZNSt4listIP10BaseDriverSaIS1_EEaSERKS3_
                0x00000000        0x8 ./Common/Drivers/PluggableDriversProvider.o
 .note.GNU-stack
                0x00000000        0x0 ./Common/Drivers/PluggableDriversProvider.o
 .note.GNU-stack
                0x00000000        0x0 ./Common/Devices/BaseDevicesProvider.o
 .group         0x00000000       0x10 ./Common/Devices/DeviceManager.o
 .group         0x00000000       0x10 ./Common/Devices/DeviceManager.o
 .note.GNU-stack
                0x00000000        0x0 ./Common/Devices/DeviceManager.o
 .group         0x00000000       0x10 ./Common/Devices/PluggableDevicesProvider.o
 .group         0x00000000       0x10 ./Common/Devices/PluggableDevicesProvider.o
 .group         0x00000000       0x10 ./Common/Devices/PluggableDevicesProvider.o
 .group         0x00000000       0x10 ./Common/Devices/PluggableDevicesProvider.o
 .group         0x00000000       0x10 ./Common/Devices/PluggableDevicesProvider.o
 .group         0x00000000       0x10 ./Common/Devices/PluggableDevicesProvider.o
 .group         0x00000000       0x10 ./Common/Devices/PluggableDevicesProvider.o
 .text._ZNSt4listIP10BaseDeviceSaIS1_EED2Ev
                0x00000000       0x30 ./Common/Devices/PluggableDevicesProvider.o
 .ARM.extab.text._ZNSt4listIP10BaseDeviceSaIS1_EED2Ev
                0x00000000        0x0 ./Common/Devices/PluggableDevicesProvider.o
 .ARM.exidx.text._ZNSt4listIP10BaseDeviceSaIS1_EED2Ev
                0x00000000        0x8 ./Common/Devices/PluggableDevicesProvider.o
 .text._ZStplIcSt11char_traitsIcESaIcEESbIT_T0_T1_ERKS6_S8_
                0x00000000       0x30 ./Common/Devices/PluggableDevicesProvider.o
 .ARM.extab.text._ZStplIcSt11char_traitsIcESaIcEESbIT_T0_T1_ERKS6_S8_
                0x00000000       0x18 ./Common/Devices/PluggableDevicesProvider.o
 .ARM.exidx.text._ZStplIcSt11char_traitsIcESaIcEESbIT_T0_T1_ERKS6_S8_
                0x00000000        0x8 ./Common/Devices/PluggableDevicesProvider.o
 .text._ZNSt4listIP10BaseDeviceSaIS1_EEaSERKS3_
                0x00000000      0x128 ./Common/Devices/PluggableDevicesProvider.o
 .ARM.extab.text._ZNSt4listIP10BaseDeviceSaIS1_EEaSERKS3_
                0x00000000       0x18 ./Common/Devices/PluggableDevicesProvider.o
 .ARM.exidx.text._ZNSt4listIP10BaseDeviceSaIS1_EEaSERKS3_
                0x00000000        0x8 ./Common/Devices/PluggableDevicesProvider.o
 .note.GNU-stack
                0x00000000        0x0 ./Common/Devices/PluggableDevicesProvider.o
 .note.GNU-stack
                0x00000000        0x0 /usr/lib/arm-linux-gnueabihf/libc_nonshared.a(elf-init.oS)
 .note.GNU-stack
                0x00000000        0x0 /usr/lib/gcc/arm-linux-gnueabihf/4.6/crtend.o
 .note.GNU-stack
                0x00000000        0x0 /usr/lib/gcc/arm-linux-gnueabihf/4.6/../../../arm-linux-gnueabihf/crtn.o
 .gnu_debuglink
                0x00000000        0xc /usr/lib/gcc/arm-linux-gnueabihf/4.6/../../../arm-linux-gnueabihf/crtn.o

Memory Configuration

Name             Origin             Length             Attributes
*default*        0x00000000         0xffffffff

Linker script and memory map

LOAD /usr/lib/gcc/arm-linux-gnueabihf/4.6/../../../arm-linux-gnueabihf/crt1.o
LOAD /usr/lib/gcc/arm-linux-gnueabihf/4.6/../../../arm-linux-gnueabihf/crti.o
LOAD /usr/lib/gcc/arm-linux-gnueabihf/4.6/crtbegin.o
LOAD /usr/lib/gcc/arm-linux-gnueabihf/4.6/../../../arm-linux-gnueabihf/libdl.so
LOAD /usr/lib/gcc/arm-linux-gnueabihf/4.6/../../../arm-linux-gnueabihf/libcurl.so
LOAD /usr/lib/gcc/arm-linux-gnueabihf/4.6/../../../arm-linux-gnueabihf/libpthread.so
START GROUP
LOAD /lib/arm-linux-gnueabihf/libpthread.so.0
LOAD /usr/lib/arm-linux-gnueabihf/libpthread_nonshared.a
END GROUP
LOAD /usr/lib/gcc/arm-linux-gnueabihf/4.6/../../../arm-linux-gnueabihf/librt.so
LOAD ./agilartRT.o
LOAD ./WebServer/mongoose.o
LOAD ./WebServer/WebServer.o
LOAD ./DaemonUtils/DaemonService.o
LOAD ./Common/ProgramManager.o
LOAD ./Common/UpcbJsonParser.o
LOAD ./Common/Mappings/MappingManager.o
LOAD ./Common/Mappings/PinoutMapping.o
LOAD ./Common/Mappings/ProgramMapping.o
LOAD ./Common/Drivers/BaseDriversProvider.o
LOAD ./Common/Drivers/DriversManager.o
LOAD ./Common/Drivers/PluggableDriversProvider.o
LOAD ./Common/Devices/BaseDevicesProvider.o
LOAD ./Common/Devices/DeviceManager.o
LOAD ./Common/Devices/PluggableDevicesProvider.o
LOAD ../../Drivers/Debug/libDrivers.so
LOAD /usr/lib/gcc/arm-linux-gnueabihf/4.6/../../../arm-linux-gnueabihf/libdl.so
LOAD ../../Common/Debug/libCommon.so
LOAD ../../Devices/Debug/libDevices.so
LOAD /usr/lib/gcc/arm-linux-gnueabihf/4.6/libstdc++.so
LOAD /usr/lib/gcc/arm-linux-gnueabihf/4.6/../../../arm-linux-gnueabihf/libm.so
LOAD /usr/lib/gcc/arm-linux-gnueabihf/4.6/libgcc_s.so
START GROUP
LOAD /usr/lib/gcc/arm-linux-gnueabihf/4.6/libgcc_s.so.1
LOAD /usr/lib/gcc/arm-linux-gnueabihf/4.6/libgcc.a
END GROUP
LOAD /usr/lib/gcc/arm-linux-gnueabihf/4.6/libgcc.a
LOAD /usr/lib/gcc/arm-linux-gnueabihf/4.6/../../../arm-linux-gnueabihf/libpthread.so
START GROUP
LOAD /lib/arm-linux-gnueabihf/libpthread.so.0
LOAD /usr/lib/arm-linux-gnueabihf/libpthread_nonshared.a
END GROUP
LOAD /usr/lib/gcc/arm-linux-gnueabihf/4.6/../../../arm-linux-gnueabihf/libc.so
START GROUP
LOAD /lib/arm-linux-gnueabihf/libc.so.6
LOAD /usr/lib/arm-linux-gnueabihf/libc_nonshared.a
LOAD /lib/arm-linux-gnueabihf/ld-linux-armhf.so.3
END GROUP
LOAD /usr/lib/gcc/arm-linux-gnueabihf/4.6/libgcc_s.so
START GROUP
LOAD /usr/lib/gcc/arm-linux-gnueabihf/4.6/libgcc_s.so.1
LOAD /usr/lib/gcc/arm-linux-gnueabihf/4.6/libgcc.a
END GROUP
LOAD /usr/lib/gcc/arm-linux-gnueabihf/4.6/libgcc.a
LOAD /usr/lib/gcc/arm-linux-gnueabihf/4.6/crtend.o
LOAD /usr/lib/gcc/arm-linux-gnueabihf/4.6/../../../arm-linux-gnueabihf/crtn.o
                0x00008000                PROVIDE (__executable_start, 0x8000)
                0x00008134                . = (0x8000 + SIZEOF_HEADERS)

.interp         0x00008134       0x19
 *(.interp)
 .interp        0x00008134       0x19 /usr/lib/gcc/arm-linux-gnueabihf/4.6/../../../arm-linux-gnueabihf/crt1.o

.note.ABI-tag   0x00008150       0x20
 .note.ABI-tag  0x00008150       0x20 /usr/lib/gcc/arm-linux-gnueabihf/4.6/../../../arm-linux-gnueabihf/crt1.o

.note.gnu.build-id
                0x00008170       0x24
 *(.note.gnu.build-id)
 .note.gnu.build-id
                0x00008170       0x24 linker stubs

.hash           0x00008194      0x8f8
 *(.hash)
 .hash          0x00008194      0x8f8 /usr/lib/gcc/arm-linux-gnueabihf/4.6/../../../arm-linux-gnueabihf/crt1.o

.gnu.hash       0x00008a8c      0x9ec
 *(.gnu.hash)
 .gnu.hash      0x00008a8c      0x9ec /usr/lib/gcc/arm-linux-gnueabihf/4.6/../../../arm-linux-gnueabihf/crt1.o

.dynsym         0x00009478     0x1350
 *(.dynsym)
 .dynsym        0x00009478     0x1350 /usr/lib/gcc/arm-linux-gnueabihf/4.6/../../../arm-linux-gnueabihf/crt1.o

.dynstr         0x0000a7c8     0x1c5c
 *(.dynstr)
 .dynstr        0x0000a7c8     0x1c5c /usr/lib/gcc/arm-linux-gnueabihf/4.6/../../../arm-linux-gnueabihf/crt1.o

.gnu.version    0x0000c424      0x26a
 *(.gnu.version)
 .gnu.version   0x0000c424      0x26a /usr/lib/gcc/arm-linux-gnueabihf/4.6/../../../arm-linux-gnueabihf/crt1.o

.gnu.version_d  0x0000c690        0x0
 *(.gnu.version_d)
 .gnu.version_d
                0x00000000        0x0 /usr/lib/gcc/arm-linux-gnueabihf/4.6/../../../arm-linux-gnueabihf/crt1.o

.gnu.version_r  0x0000c690      0x100
 *(.gnu.version_r)
 .gnu.version_r
                0x0000c690      0x100 /usr/lib/gcc/arm-linux-gnueabihf/4.6/../../../arm-linux-gnueabihf/crt1.o

.rel.dyn        0x0000c790      0x198
 *(.rel.init)
 *(.rel.text .rel.text.* .rel.gnu.linkonce.t.*)
 *(.rel.fini)
 *(.rel.rodata .rel.rodata.* .rel.gnu.linkonce.r.*)
 *(.rel.data.rel.ro* .rel.gnu.linkonce.d.rel.ro.*)
 *(.rel.data .rel.data.* .rel.gnu.linkonce.d.*)
 *(.rel.tdata .rel.tdata.* .rel.gnu.linkonce.td.*)
 *(.rel.tbss .rel.tbss.* .rel.gnu.linkonce.tb.*)
 *(.rel.ctors)
 *(.rel.dtors)
 *(.rel.got)
 .rel.got       0x0000c790        0x8 /usr/lib/gcc/arm-linux-gnueabihf/4.6/../../../arm-linux-gnueabihf/crt1.o
 *(.rel.bss .rel.bss.* .rel.gnu.linkonce.b.*)
 .rel.bss       0x0000c798      0x190 /usr/lib/gcc/arm-linux-gnueabihf/4.6/../../../arm-linux-gnueabihf/crt1.o
                0x0000c928                PROVIDE (__rel_iplt_start, .)
 *(.rel.iplt)
 .rel.iplt      0x00000000        0x0 /usr/lib/gcc/arm-linux-gnueabihf/4.6/../../../arm-linux-gnueabihf/crt1.o
                0x0000c928                PROVIDE (__rel_iplt_end, .)
                0x0000c928                PROVIDE (__rela_iplt_start, .)
                0x0000c928                PROVIDE (__rela_iplt_end, .)

.rela.dyn       0x0000c928        0x0
 *(.rela.init)
 *(.rela.text .rela.text.* .rela.gnu.linkonce.t.*)
 *(.rela.fini)
 *(.rela.rodata .rela.rodata.* .rela.gnu.linkonce.r.*)
 *(.rela.data .rela.data.* .rela.gnu.linkonce.d.*)
 *(.rela.tdata .rela.tdata.* .rela.gnu.linkonce.td.*)
 *(.rela.tbss .rela.tbss.* .rela.gnu.linkonce.tb.*)
 *(.rela.ctors)
 *(.rela.dtors)
 *(.rela.got)
 *(.rela.bss .rela.bss.* .rela.gnu.linkonce.b.*)
                0x0000c928                PROVIDE (__rel_iplt_start, .)
                0x0000c928                PROVIDE (__rel_iplt_end, .)
                0x0000c928                PROVIDE (__rela_iplt_start, .)
 *(.rela.iplt)
                0x0000c928                PROVIDE (__rela_iplt_end, .)

.rel.plt        0x0000c928      0x738
 *(.rel.plt)
 .rel.plt       0x0000c928      0x738 /usr/lib/gcc/arm-linux-gnueabihf/4.6/../../../arm-linux-gnueabihf/crt1.o

.rela.plt
 *(.rela.plt)

.init           0x0000d060        0xc
 *(.init)
 .init          0x0000d060        0x8 /usr/lib/gcc/arm-linux-gnueabihf/4.6/../../../arm-linux-gnueabihf/crti.o
                0x0000d060                _init
 .init          0x0000d068        0x4 /usr/lib/gcc/arm-linux-gnueabihf/4.6/../../../arm-linux-gnueabihf/crtn.o

.plt            0x0000d06c      0xae8
 *(.plt)
 .plt           0x0000d06c      0xae8 /usr/lib/gcc/arm-linux-gnueabihf/4.6/../../../arm-linux-gnueabihf/crt1.o
                0x0000d080                signal@@GLIBC_2.4
                0x0000d08c                pthread_cond_init@@GLIBC_2.4
                0x0000d098                chdir@@GLIBC_2.4
                0x0000d0a4                _ZNSo3putEc@@GLIBCXX_3.4
                0x0000d0b0                _Znwj@@GLIBCXX_3.4
                0x0000d0bc                getpwnam@@GLIBC_2.4
                0x0000d0c8                _ZN13Configuration8InstanceEv
                0x0000d0d4                pthread_mutex_lock@@GLIBC_2.4
                0x0000d0e0                _ZNSt8__detail15_List_node_base7_M_hookEPS0_@@GLIBCXX_3.4.15
                0x0000d0ec                pthread_mutex_init@@GLIBC_2.4
                0x0000d0f8                ftruncate@@GLIBC_2.4
                0x0000d104                popen@@GLIBC_2.4
                0x0000d110                getpid@@GLIBC_2.4
                0x0000d11c                _ZSt29_Rb_tree_insert_and_rebalancebPSt18_Rb_tree_node_baseS0_RS_@@GLIBCXX_3.4
                0x0000d128                __aeabi_atexit@@CXXABI_ARM_1.3.3
                0x0000d134                dlerror@@GLIBC_2.4
                0x0000d140                pthread_cond_destroy@@GLIBC_2.4
                0x0000d14c                _ZNSs12_M_leak_hardEv@@GLIBCXX_3.4
                0x0000d158                _ZN7Convert6ToTypeESs
                0x0000d164                _ZN5Event10ParametersEv
                0x0000d170                _ZNSs7replaceEjjPKcj@@GLIBCXX_3.4
                0x0000d17c                _ZNKSs7compareEPKc@@GLIBCXX_3.4
                0x0000d188                fdopen@@GLIBC_2.4
                0x0000d194                _ZN4Wire6AttachEP15ConnectionPoint
                0x0000d1a0                strtol@@GLIBC_2.4
                0x0000d1ac                free@@GLIBC_2.4
                0x0000d1b8                readdir@@GLIBC_2.4
                0x0000d1c4                qsort@@GLIBC_2.4
                0x0000d1d0                strncmp@@GLIBC_2.4
                0x0000d1dc                _ZN7ProcessC1Ev
                0x0000d1e8                _ZN13Configuration12SaveSettingsESt3mapISsSsSt4lessISsESaISt4pairIKSsSsEEE
                0x0000d1f4                _ZNSs6assignEPKcj@@GLIBCXX_3.4
                0x0000d200                pthread_exit@@GLIBC_2.4
                0x0000d20c                getppid@@GLIBC_2.4
                0x0000d218                __cxa_begin_catch@@CXXABI_1.3
                0x0000d224                _ZN7Command10ParametersEv
                0x0000d230                pthread_join@@GLIBC_2.4
                0x0000d23c                fgetc@@GLIBC_2.4
                0x0000d248                strcspn@@GLIBC_2.4
                0x0000d254                _ZStrsIcSt11char_traitsIcESaIcEERSt13basic_istreamIT_T0_ES7_RSbIS4_S5_T1_E@@GLIBCXX_3.4
                0x0000d260                _ZN5EventD1Ev
                0x0000d26c                closedir@@GLIBC_2.4
                0x0000d278                inet_ntop@@GLIBC_2.4
                0x0000d284                _ZSt4endlIcSt11char_traitsIcEERSt13basic_ostreamIT_T0_ES6_@@GLIBCXX_3.4
                0x0000d290                _ZN6Pinout14EventTriggeredEPvSt4listI14EventParameterSaIS2_EE
                0x0000d29c                __cxa_allocate_exception@@CXXABI_1.3
                0x0000d2a8                _ZN7ProgramC1EiSsSs
                0x0000d2b4                exit@@GLIBC_2.4
                0x0000d2c0                _ZNSt8__detail15_List_node_base11_M_transferEPS0_S1_@@GLIBCXX_3.4.15
                0x0000d2cc                strerror@@GLIBC_2.4
                0x0000d2d8                pthread_cond_signal@@GLIBC_2.4
                0x0000d2e4                strtok@@GLIBC_2.4
                0x0000d2f0                perror@@GLIBC_2.4
                0x0000d2fc                _ZNSsC1ERKSs@@GLIBCXX_3.4
                0x0000d308                strtoll@@GLIBC_2.4
                0x0000d314                _ZSt28_Rb_tree_rebalance_for_erasePSt18_Rb_tree_node_baseRS_@@GLIBCXX_3.4
                0x0000d320                _ZSt18_Rb_tree_decrementPKSt18_Rb_tree_node_base@@GLIBCXX_3.4
                0x0000d32c                _ZN7Process5StartEP7Program
                0x0000d338                _ZN7Command12AddParameterEP16CommandParameter
                0x0000d344                strftime@@GLIBC_2.4
                0x0000d350                _ZN10BaseDevice7SetNameESs
                0x0000d35c                memset@@GLIBC_2.4
                0x0000d368                pthread_self@@GLIBC_2.4
                0x0000d374                _ZNSo5flushEv@@GLIBCXX_3.4
                0x0000d380                _ZN5Event12AddParameterE14EventParameter
                0x0000d38c                strspn@@GLIBC_2.4
                0x0000d398                opendir@@GLIBC_2.4
                0x0000d3a4                _ZN24DataSerializationManager4SaveESsSs
                0x0000d3b0                _ZN13Configuration16SaveToConfigFileEv
                0x0000d3bc                _ZSt18_Rb_tree_incrementPSt18_Rb_tree_node_base@@GLIBCXX_3.4
                0x0000d3c8                recv@@GLIBC_2.4
                0x0000d3d4                remove@@GLIBC_2.4
                0x0000d3e0                _ZN13Configuration14GetStringParamESs
                0x0000d3ec                _ZN7Program2IdEv
                0x0000d3f8                fcntl@@GLIBC_2.4
                0x0000d404                listen@@GLIBC_2.4
                0x0000d410                snprintf@@GLIBC_2.4
                0x0000d41c                _ZNSs7reserveEj@@GLIBCXX_3.4
                0x0000d428                _ZN5EventC1ERKS_
                0x0000d434                close@@GLIBC_2.4
                0x0000d440                _ZN11EventLogger8InstanceEv
                0x0000d44c                gmtime@@GLIBC_2.4
                0x0000d458                _ZN7Program7DevicesEv
                0x0000d464                pthread_cond_broadcast@@GLIBC_2.4
                0x0000d470                fopen@@GLIBC_2.4
                0x0000d47c                _Znaj@@GLIBCXX_3.4
                0x0000d488                read@@GLIBC_2.4
                0x0000d494                _ZN7Command4NameEv
                0x0000d4a0                _ZNSs4_Rep10_M_destroyERKSaIcE@@GLIBCXX_3.4
                0x0000d4ac                abort@@GLIBC_2.4
                0x0000d4b8                __ctype_toupper_loc@@GLIBC_2.4
                0x0000d4c4                memmove@@GLIBC_2.4
                0x0000d4d0                setbuf@@GLIBC_2.4
                0x0000d4dc                freopen@@GLIBC_2.4
                0x0000d4e8                _ZN7Convert8ToStringEPv16AgilartDataTypes
                0x0000d4f4                gethostbyname@@GLIBC_2.4
                0x0000d500                dlopen@@GLIBC_2.4
                0x0000d50c                kill@@GLIBC_2.4
                0x0000d518                dup2@@GLIBC_2.4
                0x0000d524                localtime@@GLIBC_2.4
                0x0000d530                _ZN24DataSerializationManager4LoadESs
                0x0000d53c                realloc@@GLIBC_2.4
                0x0000d548                pthread_attr_setdetachstate@@GLIBC_2.4
                0x0000d554                _ZN7Program4NameEv
                0x0000d560                _ZNSsC1ERKSsjj@@GLIBCXX_3.4
                0x0000d56c                _ZdlPv@@GLIBCXX_3.4
                0x0000d578                __assert_fail@@GLIBC_2.4
                0x0000d584                __isoc99_sscanf@@GLIBC_2.7
                0x0000d590                _ZStlsISt11char_traitsIcEERSt13basic_ostreamIcT_ES5_PKc@@GLIBCXX_3.4
                0x0000d59c                _ZNKSs4findEPKcjj@@GLIBCXX_3.4
                0x0000d5a8                strtod@@GLIBC_2.4
                0x0000d5b4                _ZN13Configuration26GetSettingsJsonDescriptionEv
                0x0000d5c0                _ZN10BaseDevice11SetIsCustomEb
                0x0000d5cc                open@@GLIBC_2.4
                0x0000d5d8                bind@@GLIBC_2.4
                0x0000d5e4                _ZSt18_Rb_tree_decrementPSt18_Rb_tree_node_base@@GLIBCXX_3.4
                0x0000d5f0                pthread_mutex_destroy@@GLIBC_2.4
                0x0000d5fc                _ZNSs6appendERKSs@@GLIBCXX_3.4
                0x0000d608                fread@@GLIBC_2.4
                0x0000d614                fileno@@GLIBC_2.4
                0x0000d620                _ZN7Program9AddDeviceEP10BaseDevice
                0x0000d62c                setgid@@GLIBC_2.4
                0x0000d638                __cxa_end_cleanup@@CXXABI_1.3
                0x0000d644                fork@@GLIBC_2.4
                0x0000d650                _ZNSs6appendEPKcj@@GLIBCXX_3.4
                0x0000d65c                socket@@GLIBC_2.4
                0x0000d668                _ZNSsC1EPKcRKSaIcE@@GLIBCXX_3.4
                0x0000d674                _ZNKSt5ctypeIcE13_M_widen_initEv@@GLIBCXX_3.4.11
                0x0000d680                _ZSt18_Rb_tree_incrementPKSt18_Rb_tree_node_base@@GLIBCXX_3.4
                0x0000d68c                _ZN13Configuration8SetParamEPKcS1_
                0x0000d698                setsid@@GLIBC_2.4
                0x0000d6a4                mkdir@@GLIBC_2.4
                0x0000d6b0                _ZN10BaseDevice18GetConnectionPointEi
                0x0000d6bc                strstr@@GLIBC_2.4
                0x0000d6c8                _ZN24DataSerializationManager10FileExistsEPKc
                0x0000d6d4                _ZN7Convert6ToBoolEPv16AgilartDataTypes
                0x0000d6e0                _ZN7Convert7ToFloatEPv16AgilartDataTypes
                0x0000d6ec                _ZSt16__throw_bad_castv@@GLIBCXX_3.4
                0x0000d6f8                pclose@@GLIBC_2.4
                0x0000d704                _ZSt16__ostream_insertIcSt11char_traitsIcEERSt13basic_ostreamIT_T0_ES6_PKS3_i@@GLIBCXX_3.4.9
                0x0000d710                _ZNSs6assignERKSs@@GLIBCXX_3.4
                0x0000d71c                setsockopt@@GLIBC_2.4
                0x0000d728                select@@GLIBC_2.4
                0x0000d734                pthread_cancel@@GLIBC_2.4
                0x0000d740                shutdown@@GLIBC_2.4
                0x0000d74c                sleep@@GLIBC_2.4
                0x0000d758                _ZN7Program5WiresEv
                0x0000d764                setuid@@GLIBC_2.4
                0x0000d770                __ctype_b_loc@@GLIBC_2.4
                0x0000d77c                pthread_cond_wait@@GLIBC_2.4
                0x0000d788                getuid@@GLIBC_2.4
                0x0000d794                _ZN5Event4NameEv
                0x0000d7a0                _ZN7Program9GetDeviceEi
                0x0000d7ac                connect@@GLIBC_2.4
                0x0000d7b8                pthread_attr_init@@GLIBC_2.4
                0x0000d7c4                _ZN24DataSerializationManager6DeleteESs
                0x0000d7d0                calloc@@GLIBC_2.4
                0x0000d7dc                execle@@GLIBC_2.4
                0x0000d7e8                ferror@@GLIBC_2.4
                0x0000d7f4                _ZN7Process10GetProgramEv
                0x0000d800                fgets@@GLIBC_2.4
                0x0000d80c                flockfile@@GLIBC_2.4
                0x0000d818                _ZN13Configuration10InitializeEPKcPFvSsE
                0x0000d824                _ZSt20__throw_out_of_rangePKc@@GLIBCXX_3.4
                0x0000d830                fputc@@GLIBC_2.4
                0x0000d83c                __cxa_rethrow@@CXXABI_1.3
                0x0000d848                fwrite@@GLIBC_2.4
                0x0000d854                _ZN10BaseDevice17AddCustomPropertyEP15DeviceParameter
                0x0000d860                memcpy@@GLIBC_2.4
                0x0000d86c                umask@@GLIBC_2.4
                0x0000d878                geteuid@@GLIBC_2.4
                0x0000d884                malloc@@GLIBC_2.4
                0x0000d890                strlen@@GLIBC_2.4
                0x0000d89c                _ZNSt8ios_base4InitC1Ev@@GLIBCXX_3.4
                0x0000d8a8                _ZN10BaseDevice7PinoutsEv
                0x0000d8b4                accept@@GLIBC_2.4
                0x0000d8c0                usleep@@GLIBC_2.4
                0x0000d8cc                fprintf@@GLIBC_2.4
                0x0000d8d8                fclose@@GLIBC_2.4
                0x0000d8e4                _ZNSsD1Ev@@GLIBCXX_3.4
                0x0000d8f0                write@@GLIBC_2.4
                0x0000d8fc                _ZN10BaseDevice5SetIdEi
                0x0000d908                sprintf@@GLIBC_2.4
                0x0000d914                fseeko@@GLIBC_2.4
                0x0000d920                __xstat@@GLIBC_2.4
                0x0000d92c                _ZN7Convert5ToIntEPv16AgilartDataTypes
                0x0000d938                _ZNSt8__detail15_List_node_base9_M_unhookEv@@GLIBCXX_3.4.15
                0x0000d944                __cxa_end_catch@@CXXABI_1.3
                0x0000d950                __gxx_personality_v0@@CXXABI_1.3
                0x0000d95c                pthread_create@@GLIBC_2.4
                0x0000d968                __aeabi_l2d@@GCC_3.5
                0x0000d974                strcmp@@GLIBC_2.4
                0x0000d980                _ZN10BaseDevice2IdEv
                0x0000d98c                _ZNSt9basic_iosIcSt11char_traitsIcEE5clearESt12_Ios_Iostate@@GLIBCXX_3.4
                0x0000d998                time@@GLIBC_2.4
                0x0000d9a4                __cxa_throw@@CXXABI_1.3
                0x0000d9b0                _ZN7CommandD1Ev
                0x0000d9bc                _ZN7Process9GetStatusESs
                0x0000d9c8                _ZNSolsEi@@GLIBCXX_3.4
                0x0000d9d4                __errno_location@@GLIBC_2.4
                0x0000d9e0                send@@GLIBC_2.4
                0x0000d9ec                _ZN10BaseDevice6ToJsonEv
                0x0000d9f8                __sysv_signal@@GLIBC_2.4
                0x0000da04                memchr@@GLIBC_2.4
                0x0000da10                fflush@@GLIBC_2.4
                0x0000da1c                _ZN11EventLogger15GetErrorMessageEi
                0x0000da28                memcmp@@GLIBC_2.4
                0x0000da34                _ZN7CommandC1ESs
                0x0000da40                strrchr@@GLIBC_2.4
                0x0000da4c                _ZN7Convert8ToDoubleEPv16AgilartDataTypes
                0x0000da58                __ctype_tolower_loc@@GLIBC_2.4
                0x0000da64                funlockfile@@GLIBC_2.4
                0x0000da70                _ZN7Process4StopEv
                0x0000da7c                _ZN11EventLogger6ToJsonEv
                0x0000da88                fputs@@GLIBC_2.4
                0x0000da94                getenv@@GLIBC_2.4
                0x0000daa0                __libc_start_main@@GLIBC_2.4
                0x0000daac                dlsym@@GLIBC_2.4
                0x0000dab8                _ZNKSs4findEcj@@GLIBCXX_3.4
                0x0000dad0                rename@@GLIBC_2.4
                0x0000dadc                __cxa_pure_virtual@@CXXABI_1.3
                0x0000dae8                _ZN6Pinout2IdEv
                0x0000daf4                strchr@@GLIBC_2.4
                0x0000db00                _ZN4WireC1Ev
                0x0000db0c                pthread_mutex_unlock@@GLIBC_2.4
                0x0000db18                vsnprintf@@GLIBC_2.4
                0x0000db24                pipe@@GLIBC_2.4
                0x0000db30                _ZN5EventC1ESs
                0x0000db3c                _ZN11EventLogger12WriteVerboseEPKcz
                0x0000db48                _ZNSt8ios_base4InitD1Ev@@GLIBCXX_3.4

.iplt           0x0000db54        0x0
 *(.iplt)
 .iplt          0x00000000        0x0 /usr/lib/gcc/arm-linux-gnueabihf/4.6/../../../arm-linux-gnueabihf/crt1.o

.text           0x0000db58    0x23ad4
 *(.text.unlikely .text.*_unlikely)
 .text.unlikely
                0x0000db58      0x370 ./WebServer/mongoose.o
 *(.text.exit .text.exit.*)
 *(.text.startup .text.startup.*)
 .text.startup  0x0000dec8      0x160 ./agilartRT.o
                0x0000dec8                main
 .text.startup  0x0000e028       0x30 ./WebServer/WebServer.o
 .text.startup  0x0000e058       0x30 ./DaemonUtils/DaemonService.o
 .text.startup  0x0000e088       0x30 ./Common/ProgramManager.o
 .text.startup  0x0000e0b8       0x30 ./Common/UpcbJsonParser.o
 .text.startup  0x0000e0e8       0x30 ./Common/Mappings/MappingManager.o
 .text.startup  0x0000e118       0x30 ./Common/Mappings/PinoutMapping.o
 .text.startup  0x0000e148       0x30 ./Common/Mappings/ProgramMapping.o
 .text.startup  0x0000e178       0x30 ./Common/Drivers/BaseDriversProvider.o
 .text.startup  0x0000e1a8       0x30 ./Common/Drivers/DriversManager.o
 .text.startup  0x0000e1d8       0x30 ./Common/Drivers/PluggableDriversProvider.o
 .text.startup  0x0000e208       0x30 ./Common/Devices/BaseDevicesProvider.o
 .text.startup  0x0000e238       0x30 ./Common/Devices/DeviceManager.o
 .text.startup  0x0000e268       0x30 ./Common/Devices/PluggableDevicesProvider.o
 *(.text.hot .text.hot.*)
 *(.text .stub .text.* .gnu.linkonce.t.*)
 .text          0x0000e298       0x3c /usr/lib/gcc/arm-linux-gnueabihf/4.6/../../../arm-linux-gnueabihf/crt1.o
                0x0000e298                _start
 .text          0x0000e2d4       0x24 /usr/lib/gcc/arm-linux-gnueabihf/4.6/../../../arm-linux-gnueabihf/crti.o
 .text          0x0000e2f8       0x4c /usr/lib/gcc/arm-linux-gnueabihf/4.6/crtbegin.o
 .text          0x0000e344        0x0 ./agilartRT.o
 *fill*         0x0000e344        0x4 00000000
 .text          0x0000e348     0x8328 ./WebServer/mongoose.o
                0x00010ae8                mg_get_valid_option_names
                0x00010af4                mg_get_option
                0x00010b30                mg_version
                0x00010b3c                mg_get_request_info
                0x00010b40                mg_get_header
                0x00010b44                mg_start_thread
                0x00010b84                mg_read
                0x00010c84                mg_write
                0x00011568                mg_printf
                0x00011b80                mg_get_var
                0x00011cdc                mg_get_cookie
                0x00011e08                mg_get_builtin_mime_type
                0x00012200                mg_md5
                0x000150c4                mg_modify_passwords_file
                0x000152e0                mg_send_file
                0x00015340                mg_upload
                0x000156bc                mg_close_connection
                0x000156d4                mg_connect
                0x00015908                mg_fetch
                0x00015ca4                mg_stop
                0x00015ce4                mg_start
 .text          0x00016670     0x63e0 ./WebServer/WebServer.o
                0x00016670                _ZN9WebServerD2Ev
                0x00016670                _ZN9WebServerD1Ev
                0x00016680                _ZN9WebServerD0Ev
                0x000166a0                _Z18WebServerThreadRunPv
                0x00016728                _ZN9WebServerC2Ev
                0x00016728                _ZN9WebServerC1Ev
                0x00016740                _ZN9WebServer8InstanceEv
                0x0001677c                _ZN9WebServer4PortEv
                0x00016784                _ZN9WebServer2IpEv
                0x000167a8                _ZN9WebServer4StopEv
                0x000167b8                _ZN9WebServer23WebServerStartListeningEv
                0x000167f8                _ZN9WebServer5StartEPcS0_
                0x0001682c                _Z16GetDeviceProperySs
                0x00016d94                _Z21SetScreenDeviceStatusSs
                0x0001702c                _Z11GetLogItemsv
                0x0001704c                _Z11GetProgramsSs
                0x00017468                _Z10GetProgramSs
                0x000174a4                _Z10GetMappingSs
                0x000174e0                _Z21GetRequestProgramNameSs
                0x0001756c                _Z17GetDriversRequestv
                0x0001758c                _Z17GetDevicesRequestv
                0x000175ac                _Z13DeleteProgramSs
                0x00017600                _Z17GetDeviceSettingsv
                0x00017620                _Z16GetProcessStatusSsSs
                0x000191bc                _Z11StopProcessSs
                0x00019748                _Z11SplitStringRSt6vectorISsSaISsEESsc
                0x00019990                _Z14HttpGetHandlerSsSsP13mg_connection
                0x0001a4b4                _Z17HttpDeleteHandlerSsSsP13mg_connection
                0x0001aa04                _Z17SaveBoardSettingsSs
                0x0001b140                _Z20ProcessClientRequestSsSs
                0x0001bd4c                _Z15HttpPostHandlerSsSsP13mg_connection
                0x0001bf14                _Z15CallbackHandler8mg_eventP13mg_connection
 .text._ZN15DeviceParameterD2Ev
                0x0001ca50      0x1c4 ./WebServer/WebServer.o
                0x0001ca50                _ZN15DeviceParameterD2Ev
                0x0001ca50                _ZN15DeviceParameterD1Ev
 .text._ZStplIcSt11char_traitsIcESaIcEESbIT_T0_T1_EPKS3_RKS6_
                0x0001cc14       0x6c ./WebServer/WebServer.o
                0x0001cc14                _ZStplIcSt11char_traitsIcESaIcEESbIT_T0_T1_EPKS3_RKS6_
 .text._ZStplIcSt11char_traitsIcESaIcEESbIT_T0_T1_ERKS6_S8_
                0x0001cc80       0x30 ./WebServer/WebServer.o
                0x0001cc80                _ZStplIcSt11char_traitsIcESaIcEESbIT_T0_T1_ERKS6_S8_
 .text._ZNSt6vectorISsSaISsEED2Ev
                0x0001ccb0       0x44 ./WebServer/WebServer.o
                0x0001ccb0                _ZNSt6vectorISsSaISsEED2Ev
                0x0001ccb0                _ZNSt6vectorISsSaISsEED1Ev
 .text._ZNSt8_Rb_treeISsSt4pairIKSsSsESt10_Select1stIS2_ESt4lessISsESaIS2_EE8_M_eraseEPSt13_Rb_tree_nodeIS2_E
                0x0001ccf4      0x118 ./WebServer/WebServer.o
                0x0001ccf4                _ZNSt8_Rb_treeISsSt4pairIKSsSsESt10_Select1stIS2_ESt4lessISsESaIS2_EE8_M_eraseEPSt13_Rb_tree_nodeIS2_E
 .text._ZNSt6vectorISsSaISsEE13_M_insert_auxEN9__gnu_cxx17__normal_iteratorIPSsS1_EERKSs
                0x0001ce0c      0x2fc ./WebServer/WebServer.o
                0x0001ce0c                _ZNSt6vectorISsSaISsEE13_M_insert_auxEN9__gnu_cxx17__normal_iteratorIPSsS1_EERKSs
 .text._ZNSt8_Rb_treeISsSt4pairIKSsSsESt10_Select1stIS2_ESt4lessISsESaIS2_EE7_M_copyEPKSt13_Rb_tree_nodeIS2_EPSA_
                0x0001d108      0x17c ./WebServer/WebServer.o
                0x0001d108                _ZNSt8_Rb_treeISsSt4pairIKSsSsESt10_Select1stIS2_ESt4lessISsESaIS2_EE7_M_copyEPKSt13_Rb_tree_nodeIS2_EPSA_
 .text._ZNSt8_Rb_treeISsSt4pairIKSsSsESt10_Select1stIS2_ESt4lessISsESaIS2_EE10_M_insert_EPKSt18_Rb_tree_node_baseSB_RKS2_
                0x0001d284       0xdc ./WebServer/WebServer.o
                0x0001d284                _ZNSt8_Rb_treeISsSt4pairIKSsSsESt10_Select1stIS2_ESt4lessISsESaIS2_EE10_M_insert_EPKSt18_Rb_tree_node_baseSB_RKS2_
 .text._ZNSt8_Rb_treeISsSt4pairIKSsSsESt10_Select1stIS2_ESt4lessISsESaIS2_EE16_M_insert_uniqueERKS2_
                0x0001d360      0x124 ./WebServer/WebServer.o
                0x0001d360                _ZNSt8_Rb_treeISsSt4pairIKSsSsESt10_Select1stIS2_ESt4lessISsESaIS2_EE16_M_insert_uniqueERKS2_
 .text._ZNSt8_Rb_treeISsSt4pairIKSsSsESt10_Select1stIS2_ESt4lessISsESaIS2_EE17_M_insert_unique_ESt23_Rb_tree_const_iteratorIS2_ERKS2_
                0x0001d484      0x230 ./WebServer/WebServer.o
                0x0001d484                _ZNSt8_Rb_treeISsSt4pairIKSsSsESt10_Select1stIS2_ESt4lessISsESaIS2_EE17_M_insert_unique_ESt23_Rb_tree_const_iteratorIS2_ERKS2_
 .text          0x0001d6b4      0x748 ./DaemonUtils/DaemonService.o
                0x0001d6b4                _ZN13DaemonServiceD2Ev
                0x0001d6b4                _ZN13DaemonServiceD1Ev
                0x0001d6c4                _ZN13DaemonServiceD0Ev
                0x0001d6e4                _ZN13DaemonServiceC2Ev
                0x0001d6e4                _ZN13DaemonServiceC1Ev
                0x0001d700                _ZN13DaemonService12RegisterLockEiiilil
                0x0001d74c                _ZN13DaemonService10SetPidLockEv
                0x0001d958                _ZN13DaemonService10InitializeEv
                0x0001dd64                _ZN13DaemonService5StartEv
                0x0001dd68                _ZN13DaemonService4StopEv
 .text          0x0001ddfc     0x55fc ./Common/ProgramManager.o
                0x0001ddfc                _ZN14ProgramManagerC2Ev
                0x0001ddfc                _ZN14ProgramManagerC1Ev
                0x0001de6c                _ZN14ProgramManager8InstanceEv
                0x0001dea8                _ZN14ProgramManager27SaveProgramAutoStartSettingEib
                0x0001e33c                _ZN14ProgramManager16SaveCustomDeviceESs
                0x0001eb58                _ZN14ProgramManagerD2Ev
                0x0001eb58                _ZN14ProgramManagerD1Ev
                0x0001ecd8                _ZN14ProgramManagerD0Ev
                0x0001ecf4                _ZN14ProgramManager10GetMappingEi
                0x0001ee84                _ZN14ProgramManager10GetProgramEi
                0x0001f014                _ZN14ProgramManager17AddProgramMappingESs
                0x0001f6cc                _ZN14ProgramManager11LoadProgramESsSs
                0x000201d0                _ZN14ProgramManager10AddProgramESs
                0x00020898                _ZN14ProgramManager14GetAllProgramsEv
                0x00020de4                _ZN14ProgramManager16GetProcessStatusEiSs
                0x00020f4c                _ZN14ProgramManager17GetRunningProgramEi
                0x00020fd0                _ZN14ProgramManager12StartProgramEi
                0x000216cc                _ZN14ProgramManager18InitializeProgramsEv
                0x00022714                _ZN14ProgramManager11HandleErrorEPvP9ErrorItem
                0x0002280c                _ZN14ProgramManager11StopProgramEi
                0x0002295c                _ZN14ProgramManager13DeleteProgramEi
 .text._ZNSt4listISsSaISsEED2Ev
                0x000233f8       0xb0 ./Common/ProgramManager.o
                0x000233f8                _ZNSt4listISsSaISsEED2Ev
                0x000233f8                _ZNSt4listISsSaISsEED1Ev
 .text._ZNSt8_Rb_treeIiSt4pairIKiSsESt10_Select1stIS2_ESt4lessIiESaIS2_EE8_M_eraseEPSt13_Rb_tree_nodeIS2_E
                0x000234a8       0xb4 ./Common/ProgramManager.o
                0x000234a8                _ZNSt8_Rb_treeIiSt4pairIKiSsESt10_Select1stIS2_ESt4lessIiESaIS2_EE8_M_eraseEPSt13_Rb_tree_nodeIS2_E
 .text._ZNSt8_Rb_treeIiSt4pairIKiP7ProcessESt10_Select1stIS4_ESt4lessIiESaIS4_EE8_M_eraseEPSt13_Rb_tree_nodeIS4_E
                0x0002355c       0x38 ./Common/ProgramManager.o
                0x0002355c                _ZNSt8_Rb_treeIiSt4pairIKiP7ProcessESt10_Select1stIS4_ESt4lessIiESaIS4_EE8_M_eraseEPSt13_Rb_tree_nodeIS4_E
 .text._ZNSt8_Rb_treeIiSt4pairIKiP7ProcessESt10_Select1stIS4_ESt4lessIiESaIS4_EE5eraseERS1_
                0x00023594      0x140 ./Common/ProgramManager.o
                0x00023594                _ZNSt8_Rb_treeIiSt4pairIKiP7ProcessESt10_Select1stIS4_ESt4lessIiESaIS4_EE5eraseERS1_
 .text._ZNSt8_Rb_treeIiSt4pairIKiSsESt10_Select1stIS2_ESt4lessIiESaIS2_EE10_M_insert_EPKSt18_Rb_tree_node_baseSB_RKS2_
                0x000236d4       0xa8 ./Common/ProgramManager.o
                0x000236d4                _ZNSt8_Rb_treeIiSt4pairIKiSsESt10_Select1stIS2_ESt4lessIiESaIS2_EE10_M_insert_EPKSt18_Rb_tree_node_baseSB_RKS2_
 .text._ZNSt8_Rb_treeIiSt4pairIKiSsESt10_Select1stIS2_ESt4lessIiESaIS2_EE16_M_insert_uniqueERKS2_
                0x0002377c       0xcc ./Common/ProgramManager.o
                0x0002377c                _ZNSt8_Rb_treeIiSt4pairIKiSsESt10_Select1stIS2_ESt4lessIiESaIS2_EE16_M_insert_uniqueERKS2_
 .text._ZNSt8_Rb_treeIiSt4pairIKiSsESt10_Select1stIS2_ESt4lessIiESaIS2_EE17_M_insert_unique_ESt23_Rb_tree_const_iteratorIS2_ERKS2_
                0x00023848      0x158 ./Common/ProgramManager.o
                0x00023848                _ZNSt8_Rb_treeIiSt4pairIKiSsESt10_Select1stIS2_ESt4lessIiESaIS2_EE17_M_insert_unique_ESt23_Rb_tree_const_iteratorIS2_ERKS2_
 .text._ZNSt8_Rb_treeIiSt4pairIKiP7ProcessESt10_Select1stIS4_ESt4lessIiESaIS4_EE10_M_insert_EPKSt18_Rb_tree_node_baseSD_RKS4_
                0x000239a0       0x88 ./Common/ProgramManager.o
                0x000239a0                _ZNSt8_Rb_treeIiSt4pairIKiP7ProcessESt10_Select1stIS4_ESt4lessIiESaIS4_EE10_M_insert_EPKSt18_Rb_tree_node_baseSD_RKS4_
 .text._ZNSt8_Rb_treeIiSt4pairIKiP7ProcessESt10_Select1stIS4_ESt4lessIiESaIS4_EE16_M_insert_uniqueERKS4_
                0x00023a28       0xcc ./Common/ProgramManager.o
                0x00023a28                _ZNSt8_Rb_treeIiSt4pairIKiP7ProcessESt10_Select1stIS4_ESt4lessIiESaIS4_EE16_M_insert_uniqueERKS4_
 .text._ZNSt8_Rb_treeIiSt4pairIKiP7ProcessESt10_Select1stIS4_ESt4lessIiESaIS4_EE17_M_insert_unique_ESt23_Rb_tree_const_iteratorIS4_ERKS4_
                0x00023af4      0x158 ./Common/ProgramManager.o
                0x00023af4                _ZNSt8_Rb_treeIiSt4pairIKiP7ProcessESt10_Select1stIS4_ESt4lessIiESaIS4_EE17_M_insert_unique_ESt23_Rb_tree_const_iteratorIS4_ERKS4_
 .text._ZNSt8_Rb_treeIiSt4pairIKiSsESt10_Select1stIS2_ESt4lessIiESaIS2_EE12_M_erase_auxESt23_Rb_tree_const_iteratorIS2_ESA_
                0x00023c4c      0x110 ./Common/ProgramManager.o
                0x00023c4c                _ZNSt8_Rb_treeIiSt4pairIKiSsESt10_Select1stIS2_ESt4lessIiESaIS2_EE12_M_erase_auxESt23_Rb_tree_const_iteratorIS2_ESA_
 .text._ZNSt8_Rb_treeIiSt4pairIKiSsESt10_Select1stIS2_ESt4lessIiESaIS2_EE5eraseERS1_
                0x00023d5c       0xb8 ./Common/ProgramManager.o
                0x00023d5c                _ZNSt8_Rb_treeIiSt4pairIKiSsESt10_Select1stIS2_ESt4lessIiESaIS2_EE5eraseERS1_
 .text          0x00023e14     0x6348 ./Common/UpcbJsonParser.o
                0x00023e14                _ZN14UpcbJsonParserD1Ev
                0x00023e14                _ZN14UpcbJsonParserD2Ev
                0x00023e24                _ZN14UpcbJsonParserD0Ev
                0x00023e44                _ZN14UpcbJsonParserC1Ev
                0x00023e44                _ZN14UpcbJsonParserC2Ev
                0x00023e54                _ZN14UpcbJsonParser8InstanceEv
                0x00023e88                _ZN14UpcbJsonParser12ParseProgramESs
                0x00026060                _ZN14UpcbJsonParser17ParseCustomDeviceESs
                0x00027248                _ZN14UpcbJsonParser17ParseUpcbCommandsESsP13PinoutMapping
                0x000283b8                _ZN14UpcbJsonParser15ParseUpcbEventsESsP13PinoutMapping
                0x000294c8                _ZN14UpcbJsonParser19ParseProgramMappingESs
 .text._ZN23CommandParameterMappingD2Ev
                0x0002a15c      0x168 ./Common/UpcbJsonParser.o
                0x0002a15c                _ZN23CommandParameterMappingD1Ev
                0x0002a15c                _ZN23CommandParameterMappingD2Ev
 .text._ZN23CommandParameterMappingD0Ev
                0x0002a2c4      0x170 ./Common/UpcbJsonParser.o
                0x0002a2c4                _ZN23CommandParameterMappingD0Ev
 .text          0x0002a434     0x1df8 ./Common/Mappings/MappingManager.o
                0x0002a434                _ZN14MappingManagerC1Ev
                0x0002a434                _ZN14MappingManagerC2Ev
                0x0002a4bc                _ZN14MappingManager8InstanceEv
                0x0002a4f8                _ZN14MappingManager10GetMappingEiiPSt4listIP13PinoutMappingSaIS2_EE
                0x0002a550                _ZN14MappingManagerD1Ev
                0x0002a550                _ZN14MappingManagerD2Ev
                0x0002a5c0                _ZN14MappingManagerD0Ev
                0x0002a5dc                _ZN14MappingManager20DeviceExecuteCommandEP6Pinout7Command
                0x0002b2ac                _Z26DevicePinoutExecuteCommandP6Pinout7Command
                0x0002b558                _ZN14MappingManager15FinalizeProgramEP7Program
                0x0002b670                _ZN14MappingManager19PinoutStatusChangedEPv5Event
                0x0002bc08                _Z25DriverPinoutStatusChangedPv5Event
                0x0002bc58                _ZN14MappingManager17InitializeProgramEP7ProgramPSt4listIP13PinoutMappingSaIS4_EE
 .text._ZNSt8_Rb_treeIP6PinoutSt4pairIKS1_P10BaseDriverESt10_Select1stIS6_ESt4lessIS1_ESaIS6_EE8_M_eraseEPSt13_Rb_tree_nodeIS6_E
                0x0002c22c       0x38 ./Common/Mappings/MappingManager.o
                0x0002c22c                _ZNSt8_Rb_treeIP6PinoutSt4pairIKS1_P10BaseDriverESt10_Select1stIS6_ESt4lessIS1_ESaIS6_EE8_M_eraseEPSt13_Rb_tree_nodeIS6_E
 .text._ZNSt8_Rb_treeIP10BaseDriverSt4pairIKS1_P6PinoutESt10_Select1stIS6_ESt4lessIS1_ESaIS6_EE8_M_eraseEPSt13_Rb_tree_nodeIS6_E
                0x0002c264       0x38 ./Common/Mappings/MappingManager.o
                0x0002c264                _ZNSt8_Rb_treeIP10BaseDriverSt4pairIKS1_P6PinoutESt10_Select1stIS6_ESt4lessIS1_ESaIS6_EE8_M_eraseEPSt13_Rb_tree_nodeIS6_E
 .text._ZNSt8_Rb_treeIP6PinoutSt4pairIKS1_P13PinoutMappingESt10_Select1stIS6_ESt4lessIS1_ESaIS6_EE8_M_eraseEPSt13_Rb_tree_nodeIS6_E
                0x0002c29c       0x38 ./Common/Mappings/MappingManager.o
                0x0002c29c                _ZNSt8_Rb_treeIP6PinoutSt4pairIKS1_P13PinoutMappingESt10_Select1stIS6_ESt4lessIS1_ESaIS6_EE8_M_eraseEPSt13_Rb_tree_nodeIS6_E
 .text._ZNSt8_Rb_treeIP6PinoutSt4pairIKS1_P10BaseDeviceESt10_Select1stIS6_ESt4lessIS1_ESaIS6_EE8_M_eraseEPSt13_Rb_tree_nodeIS6_E
                0x0002c2d4       0x38 ./Common/Mappings/MappingManager.o
                0x0002c2d4                _ZNSt8_Rb_treeIP6PinoutSt4pairIKS1_P10BaseDeviceESt10_Select1stIS6_ESt4lessIS1_ESaIS6_EE8_M_eraseEPSt13_Rb_tree_nodeIS6_E
 .text._ZNSt8_Rb_treeIP10BaseDriverSt4pairIKS1_P6PinoutESt10_Select1stIS6_ESt4lessIS1_ESaIS6_EE5eraseERS3_
                0x0002c30c      0x140 ./Common/Mappings/MappingManager.o
                0x0002c30c                _ZNSt8_Rb_treeIP10BaseDriverSt4pairIKS1_P6PinoutESt10_Select1stIS6_ESt4lessIS1_ESaIS6_EE5eraseERS3_
 .text._ZNSt8_Rb_treeIP6PinoutSt4pairIKS1_P10BaseDriverESt10_Select1stIS6_ESt4lessIS1_ESaIS6_EE5eraseERS3_
                0x0002c44c      0x140 ./Common/Mappings/MappingManager.o
                0x0002c44c                _ZNSt8_Rb_treeIP6PinoutSt4pairIKS1_P10BaseDriverESt10_Select1stIS6_ESt4lessIS1_ESaIS6_EE5eraseERS3_
 .text._ZNSt8_Rb_treeIP6PinoutSt4pairIKS1_P13PinoutMappingESt10_Select1stIS6_ESt4lessIS1_ESaIS6_EE5eraseERS3_
                0x0002c58c      0x140 ./Common/Mappings/MappingManager.o
                0x0002c58c                _ZNSt8_Rb_treeIP6PinoutSt4pairIKS1_P13PinoutMappingESt10_Select1stIS6_ESt4lessIS1_ESaIS6_EE5eraseERS3_
 .text._ZNSt8_Rb_treeIP6PinoutSt4pairIKS1_P10BaseDeviceESt10_Select1stIS6_ESt4lessIS1_ESaIS6_EE5eraseERS3_
                0x0002c6cc      0x140 ./Common/Mappings/MappingManager.o
                0x0002c6cc                _ZNSt8_Rb_treeIP6PinoutSt4pairIKS1_P10BaseDeviceESt10_Select1stIS6_ESt4lessIS1_ESaIS6_EE5eraseERS3_
 .text._ZNSt8_Rb_treeIP6PinoutSt4pairIKS1_P13PinoutMappingESt10_Select1stIS6_ESt4lessIS1_ESaIS6_EE10_M_insert_EPKSt18_Rb_tree_node_baseSF_RKS6_
                0x0002c80c       0x88 ./Common/Mappings/MappingManager.o
                0x0002c80c                _ZNSt8_Rb_treeIP6PinoutSt4pairIKS1_P13PinoutMappingESt10_Select1stIS6_ESt4lessIS1_ESaIS6_EE10_M_insert_EPKSt18_Rb_tree_node_baseSF_RKS6_
 .text._ZNSt8_Rb_treeIP6PinoutSt4pairIKS1_P13PinoutMappingESt10_Select1stIS6_ESt4lessIS1_ESaIS6_EE16_M_insert_uniqueERKS6_
                0x0002c894       0xcc ./Common/Mappings/MappingManager.o
                0x0002c894                _ZNSt8_Rb_treeIP6PinoutSt4pairIKS1_P13PinoutMappingESt10_Select1stIS6_ESt4lessIS1_ESaIS6_EE16_M_insert_uniqueERKS6_
 .text._ZNSt8_Rb_treeIP6PinoutSt4pairIKS1_P13PinoutMappingESt10_Select1stIS6_ESt4lessIS1_ESaIS6_EE17_M_insert_unique_ESt23_Rb_tree_const_iteratorIS6_ERKS6_
                0x0002c960      0x158 ./Common/Mappings/MappingManager.o
                0x0002c960                _ZNSt8_Rb_treeIP6PinoutSt4pairIKS1_P13PinoutMappingESt10_Select1stIS6_ESt4lessIS1_ESaIS6_EE17_M_insert_unique_ESt23_Rb_tree_const_iteratorIS6_ERKS6_
 .text._ZNSt8_Rb_treeIP6PinoutSt4pairIKS1_P10BaseDriverESt10_Select1stIS6_ESt4lessIS1_ESaIS6_EE10_M_insert_EPKSt18_Rb_tree_node_baseSF_RKS6_
                0x0002cab8       0x88 ./Common/Mappings/MappingManager.o
                0x0002cab8                _ZNSt8_Rb_treeIP6PinoutSt4pairIKS1_P10BaseDriverESt10_Select1stIS6_ESt4lessIS1_ESaIS6_EE10_M_insert_EPKSt18_Rb_tree_node_baseSF_RKS6_
 .text._ZNSt8_Rb_treeIP6PinoutSt4pairIKS1_P10BaseDriverESt10_Select1stIS6_ESt4lessIS1_ESaIS6_EE16_M_insert_uniqueERKS6_
                0x0002cb40       0xcc ./Common/Mappings/MappingManager.o
                0x0002cb40                _ZNSt8_Rb_treeIP6PinoutSt4pairIKS1_P10BaseDriverESt10_Select1stIS6_ESt4lessIS1_ESaIS6_EE16_M_insert_uniqueERKS6_
 .text._ZNSt8_Rb_treeIP6PinoutSt4pairIKS1_P10BaseDriverESt10_Select1stIS6_ESt4lessIS1_ESaIS6_EE17_M_insert_unique_ESt23_Rb_tree_const_iteratorIS6_ERKS6_
                0x0002cc0c      0x158 ./Common/Mappings/MappingManager.o
                0x0002cc0c                _ZNSt8_Rb_treeIP6PinoutSt4pairIKS1_P10BaseDriverESt10_Select1stIS6_ESt4lessIS1_ESaIS6_EE17_M_insert_unique_ESt23_Rb_tree_const_iteratorIS6_ERKS6_
 .text._ZNSt8_Rb_treeIP10BaseDriverSt4pairIKS1_P6PinoutESt10_Select1stIS6_ESt4lessIS1_ESaIS6_EE10_M_insert_EPKSt18_Rb_tree_node_baseSF_RKS6_
                0x0002cd64       0x88 ./Common/Mappings/MappingManager.o
                0x0002cd64                _ZNSt8_Rb_treeIP10BaseDriverSt4pairIKS1_P6PinoutESt10_Select1stIS6_ESt4lessIS1_ESaIS6_EE10_M_insert_EPKSt18_Rb_tree_node_baseSF_RKS6_
 .text._ZNSt8_Rb_treeIP10BaseDriverSt4pairIKS1_P6PinoutESt10_Select1stIS6_ESt4lessIS1_ESaIS6_EE16_M_insert_uniqueERKS6_
                0x0002cdec       0xcc ./Common/Mappings/MappingManager.o
                0x0002cdec                _ZNSt8_Rb_treeIP10BaseDriverSt4pairIKS1_P6PinoutESt10_Select1stIS6_ESt4lessIS1_ESaIS6_EE16_M_insert_uniqueERKS6_
 .text._ZNSt8_Rb_treeIP10BaseDriverSt4pairIKS1_P6PinoutESt10_Select1stIS6_ESt4lessIS1_ESaIS6_EE17_M_insert_unique_ESt23_Rb_tree_const_iteratorIS6_ERKS6_
                0x0002ceb8      0x158 ./Common/Mappings/MappingManager.o
                0x0002ceb8                _ZNSt8_Rb_treeIP10BaseDriverSt4pairIKS1_P6PinoutESt10_Select1stIS6_ESt4lessIS1_ESaIS6_EE17_M_insert_unique_ESt23_Rb_tree_const_iteratorIS6_ERKS6_
 .text._ZNSt8_Rb_treeIP6PinoutSt4pairIKS1_P10BaseDeviceESt10_Select1stIS6_ESt4lessIS1_ESaIS6_EE10_M_insert_EPKSt18_Rb_tree_node_baseSF_RKS6_
                0x0002d010       0x88 ./Common/Mappings/MappingManager.o
                0x0002d010                _ZNSt8_Rb_treeIP6PinoutSt4pairIKS1_P10BaseDeviceESt10_Select1stIS6_ESt4lessIS1_ESaIS6_EE10_M_insert_EPKSt18_Rb_tree_node_baseSF_RKS6_
 .text._ZNSt8_Rb_treeIP6PinoutSt4pairIKS1_P10BaseDeviceESt10_Select1stIS6_ESt4lessIS1_ESaIS6_EE16_M_insert_uniqueERKS6_
                0x0002d098       0xcc ./Common/Mappings/MappingManager.o
                0x0002d098                _ZNSt8_Rb_treeIP6PinoutSt4pairIKS1_P10BaseDeviceESt10_Select1stIS6_ESt4lessIS1_ESaIS6_EE16_M_insert_uniqueERKS6_
 .text._ZNSt8_Rb_treeIP6PinoutSt4pairIKS1_P10BaseDeviceESt10_Select1stIS6_ESt4lessIS1_ESaIS6_EE17_M_insert_unique_ESt23_Rb_tree_const_iteratorIS6_ERKS6_
                0x0002d164      0x158 ./Common/Mappings/MappingManager.o
                0x0002d164                _ZNSt8_Rb_treeIP6PinoutSt4pairIKS1_P10BaseDeviceESt10_Select1stIS6_ESt4lessIS1_ESaIS6_EE17_M_insert_unique_ESt23_Rb_tree_const_iteratorIS6_ERKS6_
 .text          0x0002d2bc      0x928 ./Common/Mappings/PinoutMapping.o
                0x0002d2bc                _ZN13PinoutMappingD2Ev
                0x0002d2bc                _ZN13PinoutMappingD1Ev
                0x0002d8f0                _ZN13PinoutMappingD0Ev
                0x0002d90c                _ZN13PinoutMappingC1EiiSs
                0x0002d90c                _ZN13PinoutMappingC2EiiSs
                0x0002d988                _ZN13PinoutMapping8CommandsEv
                0x0002d990                _ZN13PinoutMapping6EventsEv
                0x0002d998                _ZN13PinoutMapping10DriverTypeEv
                0x0002d9b0                _ZN13PinoutMapping8PinoutIdEv
                0x0002d9b8                _ZN13PinoutMapping8DeviceIdEv
                0x0002d9c0                _ZN13PinoutMapping17GetCommandMappingESs
                0x0002dab4                _ZN13PinoutMapping15GetEventMappingESs
 .text          0x0002dbe4      0x228 ./Common/Mappings/ProgramMapping.o
                0x0002dbe4                _ZN14ProgramMappingD2Ev
                0x0002dbe4                _ZN14ProgramMappingD1Ev
                0x0002dd68                _ZN14ProgramMappingD0Ev
                0x0002dd84                _ZN14ProgramMappingC1EiSs
                0x0002dd84                _ZN14ProgramMappingC2EiSs
                0x0002dde4                _ZN14ProgramMapping9ProgramIdEv
                0x0002ddec                _ZN14ProgramMapping11ProgramNameEv
                0x0002de04                _ZN14ProgramMapping14PinoutMappingsEv
 .text          0x0002de0c       0x40 ./Common/Drivers/BaseDriversProvider.o
                0x0002de0c                _ZN19BaseDriversProviderD1Ev
                0x0002de0c                _ZN19BaseDriversProviderD2Ev
                0x0002de1c                _ZN19BaseDriversProviderD0Ev
                0x0002de3c                _ZN19BaseDriversProviderC1Ev
                0x0002de3c                _ZN19BaseDriversProviderC2Ev
 .text          0x0002de4c      0x55c ./Common/Drivers/DriversManager.o
                0x0002de4c                _ZN14DriversManagerD2Ev
                0x0002de4c                _ZN14DriversManagerD1Ev
                0x0002de8c                _ZN14DriversManagerD0Ev
                0x0002dea8                _ZN14DriversManager8InstanceEv
                0x0002dee8                _ZN14DriversManagerC1Ev
                0x0002dee8                _ZN14DriversManagerC2Ev
                0x0002df04                _ZN14DriversManager9GetDriverEPKc
                0x0002df7c                _ZN14DriversManager18UnregisterProviderEP19BaseDriversProvider
                0x0002e010                _ZN14DriversManager16RegisterProviderEP19BaseDriversProvider
                0x0002e038                _ZN14DriversManager25GetDriversJsonDescriptionEv
 .text._ZNSt4listIP10BaseDriverSaIS1_EED2Ev
                0x0002e3a8       0x30 ./Common/Drivers/DriversManager.o
                0x0002e3a8                _ZNSt4listIP10BaseDriverSaIS1_EED2Ev
                0x0002e3a8                _ZNSt4listIP10BaseDriverSaIS1_EED1Ev
 .text._ZNSt4listIP10BaseDriverSaIS1_EEaSERKS3_
                0x0002e3d8      0x128 ./Common/Drivers/DriversManager.o
                0x0002e3d8                _ZNSt4listIP10BaseDriverSaIS1_EEaSERKS3_
 .text          0x0002e500      0xe14 ./Common/Drivers/PluggableDriversProvider.o
                0x0002e500                _ZN24PluggableDriversProvider14SupportsDriverEPKc
                0x0002e550                _ZN24PluggableDriversProvider9GetDriverEPKc
                0x0002e5ac                _ZN24PluggableDriversProviderC2Ev
                0x0002e5ac                _ZN24PluggableDriversProviderC1Ev
                0x0002e5f4                _ZN24PluggableDriversProvider7DriversEv
                0x0002e654                _ZN24PluggableDriversProvider10GetDlErrorEPKc
                0x0002e7b8                _ZN24PluggableDriversProviderD2Ev
                0x0002e7b8                _ZN24PluggableDriversProviderD1Ev
                0x0002e7e4                _ZN24PluggableDriversProviderD0Ev
                0x0002e800                _ZN24PluggableDriversProvider9AddDriverEPKcP10BaseDriver
                0x0002e8c8                _ZN24PluggableDriversProvider17LoadSharedLibraryESs
                0x0002e9f8                _ZN24PluggableDriversProvider25InitializeUploadedDriversEv
                0x0002f0f0                _ZN24PluggableDriversProvider10InitializeEv
 .text._ZNSt8_Rb_treeIPKcSt4pairIKS1_P10BaseDriverESt10_Select1stIS6_ESt4lessIS1_ESaIS6_EE8_M_eraseEPSt13_Rb_tree_nodeIS6_E
                0x0002f314       0x38 ./Common/Drivers/PluggableDriversProvider.o
                0x0002f314                _ZNSt8_Rb_treeIPKcSt4pairIKS1_P10BaseDriverESt10_Select1stIS6_ESt4lessIS1_ESaIS6_EE8_M_eraseEPSt13_Rb_tree_nodeIS6_E
 .text._ZNSt8_Rb_treeIPKcSt4pairIKS1_P10BaseDriverESt10_Select1stIS6_ESt4lessIS1_ESaIS6_EE10_M_insert_EPKSt18_Rb_tree_node_baseSF_RKS6_
                0x0002f34c       0x88 ./Common/Drivers/PluggableDriversProvider.o
                0x0002f34c                _ZNSt8_Rb_treeIPKcSt4pairIKS1_P10BaseDriverESt10_Select1stIS6_ESt4lessIS1_ESaIS6_EE10_M_insert_EPKSt18_Rb_tree_node_baseSF_RKS6_
 .text._ZNSt8_Rb_treeIPKcSt4pairIKS1_P10BaseDriverESt10_Select1stIS6_ESt4lessIS1_ESaIS6_EE16_M_insert_uniqueERKS6_
                0x0002f3d4       0xcc ./Common/Drivers/PluggableDriversProvider.o
                0x0002f3d4                _ZNSt8_Rb_treeIPKcSt4pairIKS1_P10BaseDriverESt10_Select1stIS6_ESt4lessIS1_ESaIS6_EE16_M_insert_uniqueERKS6_
 .text._ZNSt8_Rb_treeIPKcSt4pairIKS1_P10BaseDriverESt10_Select1stIS6_ESt4lessIS1_ESaIS6_EE17_M_insert_unique_ESt23_Rb_tree_const_iteratorIS6_ERKS6_
                0x0002f4a0      0x158 ./Common/Drivers/PluggableDriversProvider.o
                0x0002f4a0                _ZNSt8_Rb_treeIPKcSt4pairIKS1_P10BaseDriverESt10_Select1stIS6_ESt4lessIS1_ESaIS6_EE17_M_insert_unique_ESt23_Rb_tree_const_iteratorIS6_ERKS6_
 .text          0x0002f5f8       0x48 ./Common/Devices/BaseDevicesProvider.o
                0x0002f5f8                _ZN19BaseDevicesProviderD1Ev
                0x0002f5f8                _ZN19BaseDevicesProviderD2Ev
                0x0002f608                _ZN19BaseDevicesProvider9AddDeviceEP10BaseDevice
                0x0002f610                _ZN19BaseDevicesProviderD0Ev
                0x0002f630                _ZN19BaseDevicesProviderC1Ev
                0x0002f630                _ZN19BaseDevicesProviderC2Ev
 .text          0x0002f640      0x594 ./Common/Devices/DeviceManager.o
                0x0002f640                _ZN13DeviceManagerD1Ev
                0x0002f640                _ZN13DeviceManagerD2Ev
                0x0002f680                _ZN13DeviceManagerD0Ev
                0x0002f69c                _ZN13DeviceManager8InstanceEv
                0x0002f6dc                _ZN13DeviceManagerC1Ev
                0x0002f6dc                _ZN13DeviceManagerC2Ev
                0x0002f6f8                _ZN13DeviceManager9GetDeviceEPKc
                0x0002f770                _ZN13DeviceManager9AddDeviceEP10BaseDevice
                0x0002f7b4                _ZN13DeviceManager18UnregisterProviderEP19BaseDevicesProvider
                0x0002f848                _ZN13DeviceManager16RegisterProviderEP19BaseDevicesProvider
                0x0002f870                _ZN13DeviceManager25GetDevicesJsonDescriptionEv
 .text._ZNSt4listIP10BaseDeviceSaIS1_EED2Ev
                0x0002fbd4       0x30 ./Common/Devices/DeviceManager.o
                0x0002fbd4                _ZNSt4listIP10BaseDeviceSaIS1_EED1Ev
                0x0002fbd4                _ZNSt4listIP10BaseDeviceSaIS1_EED2Ev
 .text._ZNSt4listIP10BaseDeviceSaIS1_EEaSERKS3_
                0x0002fc04      0x128 ./Common/Devices/DeviceManager.o
                0x0002fc04                _ZNSt4listIP10BaseDeviceSaIS1_EEaSERKS3_
 .text          0x0002fd2c     0x15b8 ./Common/Devices/PluggableDevicesProvider.o
                0x0002fd2c                _ZN24PluggableDevicesProvider9GetDeviceEPKc
                0x0002fd88                _ZN24PluggableDevicesProvider14SupportsDeviceEPKc
                0x0002fdd4                _ZN24PluggableDevicesProviderC2Ev
                0x0002fdd4                _ZN24PluggableDevicesProviderC1Ev
                0x0002fe10                _ZN24PluggableDevicesProvider10GetDlErrorEPKc
                0x0002ff74                _ZN24PluggableDevicesProvider7DevicesEv
                0x0002ffd4                _ZN24PluggableDevicesProviderD2Ev
                0x0002ffd4                _ZN24PluggableDevicesProviderD1Ev
                0x00030000                _ZN24PluggableDevicesProviderD0Ev
                0x0003001c                _ZN24PluggableDevicesProvider9AddDeviceEPKcP10BaseDevice
                0x000300e4                _ZN24PluggableDevicesProvider17LoadSharedLibraryESs
                0x00030214                _ZN24PluggableDevicesProvider24InitializeUploadedDeviceEv
                0x000308f4                _ZN24PluggableDevicesProvider23InitializeCustomDevicesEv
                0x00030fd8                _ZN24PluggableDevicesProvider10InitializeEv
                0x00031204                _ZN24PluggableDevicesProvider9AddDeviceEP10BaseDevice
 .text._ZNSt8_Rb_treeIPKcSt4pairIKS1_P10BaseDeviceESt10_Select1stIS6_ESt4lessIS1_ESaIS6_EE8_M_eraseEPSt13_Rb_tree_nodeIS6_E
                0x000312e4       0x38 ./Common/Devices/PluggableDevicesProvider.o
                0x000312e4                _ZNSt8_Rb_treeIPKcSt4pairIKS1_P10BaseDeviceESt10_Select1stIS6_ESt4lessIS1_ESaIS6_EE8_M_eraseEPSt13_Rb_tree_nodeIS6_E
 .text._ZNSt8_Rb_treeIPKcSt4pairIKS1_P10BaseDeviceESt10_Select1stIS6_ESt4lessIS1_ESaIS6_EE10_M_insert_EPKSt18_Rb_tree_node_baseSF_RKS6_
                0x0003131c       0x88 ./Common/Devices/PluggableDevicesProvider.o
                0x0003131c                _ZNSt8_Rb_treeIPKcSt4pairIKS1_P10BaseDeviceESt10_Select1stIS6_ESt4lessIS1_ESaIS6_EE10_M_insert_EPKSt18_Rb_tree_node_baseSF_RKS6_
 .text._ZNSt8_Rb_treeIPKcSt4pairIKS1_P10BaseDeviceESt10_Select1stIS6_ESt4lessIS1_ESaIS6_EE16_M_insert_uniqueERKS6_
                0x000313a4       0xcc ./Common/Devices/PluggableDevicesProvider.o
                0x000313a4                _ZNSt8_Rb_treeIPKcSt4pairIKS1_P10BaseDeviceESt10_Select1stIS6_ESt4lessIS1_ESaIS6_EE16_M_insert_uniqueERKS6_
 .text._ZNSt8_Rb_treeIPKcSt4pairIKS1_P10BaseDeviceESt10_Select1stIS6_ESt4lessIS1_ESaIS6_EE17_M_insert_unique_ESt23_Rb_tree_const_iteratorIS6_ERKS6_
                0x00031470      0x158 ./Common/Devices/PluggableDevicesProvider.o
                0x00031470                _ZNSt8_Rb_treeIPKcSt4pairIKS1_P10BaseDeviceESt10_Select1stIS6_ESt4lessIS1_ESaIS6_EE17_M_insert_unique_ESt23_Rb_tree_const_iteratorIS6_ERKS6_
 .text          0x000315c8       0x64 /usr/lib/arm-linux-gnueabihf/libc_nonshared.a(elf-init.oS)
                0x000315c8                __libc_csu_init
                0x00031628                __libc_csu_fini
 .text          0x0003162c        0x0 /usr/lib/gcc/arm-linux-gnueabihf/4.6/crtend.o
 .text          0x0003162c        0x0 /usr/lib/gcc/arm-linux-gnueabihf/4.6/../../../arm-linux-gnueabihf/crtn.o
 *(.gnu.warning)
 *(.glue_7t)
 .glue_7t       0x00000000        0x0 linker stubs
 *(.glue_7)
 .glue_7        0x00000000        0x0 linker stubs
 *(.vfp11_veneer)
 .vfp11_veneer  0x00000000        0x0 linker stubs
 *(.v4_bx)
 .v4_bx         0x00000000        0x0 linker stubs

.fini           0x0003162c        0x8
 *(.fini)
 .fini          0x0003162c        0x4 /usr/lib/gcc/arm-linux-gnueabihf/4.6/../../../arm-linux-gnueabihf/crti.o
                0x0003162c                _fini
 .fini          0x00031630        0x4 /usr/lib/gcc/arm-linux-gnueabihf/4.6/../../../arm-linux-gnueabihf/crtn.o
                0x00031634                PROVIDE (__etext, .)
                0x00031634                PROVIDE (_etext, .)
                0x00031634                PROVIDE (etext, .)

.rodata         0x00031638     0x3140
 *(.rodata .rodata.* .gnu.linkonce.r.*)
 .rodata.cst4   0x00031638        0x4 /usr/lib/gcc/arm-linux-gnueabihf/4.6/../../../arm-linux-gnueabihf/crt1.o
                0x00031638                _IO_stdin_used
 .rodata.str1.4
                0x0003163c       0x64 ./agilartRT.o
 .rodata        0x000316a0      0x3a8 ./WebServer/mongoose.o
 .rodata.str1.4
                0x00031a48     0x1ea9 ./WebServer/mongoose.o
                               0x1f64 (size before relaxing)
 *fill*         0x000338f1        0x7 00
 .rodata        0x000338f8       0x28 ./WebServer/WebServer.o
                0x000338f8                _ZTV9WebServer
                0x00033908                _ZTS9WebServer
                0x00033914                _ZTI9WebServer
 .rodata.str1.4
                0x00033920      0x460 ./WebServer/WebServer.o
                                0x4e8 (size before relaxing)
 .rodata        0x00033d80       0x28 ./DaemonUtils/DaemonService.o
                0x00033d80                _ZTV13DaemonService
                0x00033d90                _ZTS13DaemonService
                0x00033da0                _ZTI13DaemonService
 .rodata.str1.4
                0x00033da8      0x16e ./DaemonUtils/DaemonService.o
                                0x17c (size before relaxing)
 *fill*         0x00033f16        0x2 00
 .rodata._ZTV13IErrorHandler
                0x00033f18       0x10 ./Common/ProgramManager.o
                0x00033f18                _ZTV13IErrorHandler
 .rodata._ZTI13IErrorHandler
                0x00033f28        0x8 ./Common/ProgramManager.o
                0x00033f28                _ZTI13IErrorHandler
 .rodata._ZTS13IErrorHandler
                0x00033f30       0x10 ./Common/ProgramManager.o
                0x00033f30                _ZTS13IErrorHandler
 .rodata        0x00033f40       0x38 ./Common/ProgramManager.o
                0x00033f40                _ZTV14ProgramManager
                0x00033f54                _ZTS14ProgramManager
                0x00033f68                _ZTI14ProgramManager
 .rodata.str1.4
                0x00033f78      0x253 ./Common/ProgramManager.o
                                0x2b8 (size before relaxing)
 *fill*         0x000341cb        0x5 00
 .rodata._ZTV23CommandParameterMapping
                0x000341d0       0x10 ./Common/UpcbJsonParser.o
                0x000341d0                _ZTV23CommandParameterMapping
 .rodata._ZTI23CommandParameterMapping
                0x000341e0        0x8 ./Common/UpcbJsonParser.o
                0x000341e0                _ZTI23CommandParameterMapping
 .rodata._ZTS23CommandParameterMapping
                0x000341e8       0x1c ./Common/UpcbJsonParser.o
                0x000341e8                _ZTS23CommandParameterMapping
 *fill*         0x00034204        0x4 00
 .rodata        0x00034208       0x30 ./Common/UpcbJsonParser.o
                0x00034208                _ZTV14UpcbJsonParser
                0x00034218                _ZTS14UpcbJsonParser
                0x0003422c                _ZTI14UpcbJsonParser
 .rodata.str1.4
                0x00034238       0x44 ./Common/UpcbJsonParser.o
                                 0x74 (size before relaxing)
 *fill*         0x0003427c        0x4 00
 .rodata        0x00034280       0x30 ./Common/Mappings/MappingManager.o
                0x00034280                _ZTV14MappingManager
                0x00034290                _ZTS14MappingManager
                0x000342a4                _ZTI14MappingManager
 .rodata.str1.4
                0x000342b0       0xb3 ./Common/Mappings/MappingManager.o
                                 0xc4 (size before relaxing)
 *fill*         0x00034363        0x5 00
 .rodata        0x00034368       0x28 ./Common/Mappings/PinoutMapping.o
                0x00034368                _ZTV13PinoutMapping
                0x00034378                _ZTS13PinoutMapping
                0x00034388                _ZTI13PinoutMapping
 .rodata.str1.4
                0x00034390       0x28 ./Common/Mappings/PinoutMapping.o
 .rodata        0x000343b8       0x30 ./Common/Mappings/ProgramMapping.o
                0x000343b8                _ZTV14ProgramMapping
                0x000343c8                _ZTS14ProgramMapping
                0x000343dc                _ZTI14ProgramMapping
 .rodata        0x000343e8       0x40 ./Common/Drivers/BaseDriversProvider.o
                0x000343e8                _ZTV19BaseDriversProvider
                0x00034408                _ZTS19BaseDriversProvider
                0x00034420                _ZTI19BaseDriversProvider
 .rodata        0x00034428       0x30 ./Common/Drivers/DriversManager.o
                0x00034428                _ZTV14DriversManager
                0x00034438                _ZTS14DriversManager
                0x0003444c                _ZTI14DriversManager
 .rodata.str1.4
                0x00034458       0x17 ./Common/Drivers/DriversManager.o
                                 0x24 (size before relaxing)
 *fill*         0x0003446f        0x1 00
 .rodata        0x00034470       0x48 ./Common/Drivers/PluggableDriversProvider.o
                0x00034470                _ZTV24PluggableDriversProvider
                0x00034490                _ZTS24PluggableDriversProvider
                0x000344ac                _ZTI24PluggableDriversProvider
 .rodata.str1.4
                0x000344b8      0x112 ./Common/Drivers/PluggableDriversProvider.o
                                0x130 (size before relaxing)
 *fill*         0x000345ca        0x6 00
 .rodata        0x000345d0       0x48 ./Common/Devices/BaseDevicesProvider.o
                0x000345d0                _ZTV19BaseDevicesProvider
                0x000345f4                _ZTS19BaseDevicesProvider
                0x0003460c                _ZTI19BaseDevicesProvider
 .rodata        0x00034618       0x28 ./Common/Devices/DeviceManager.o
                0x00034618                _ZTV13DeviceManager
                0x00034628                _ZTS13DeviceManager
                0x00034638                _ZTI13DeviceManager
 .rodata.str1.4
                0x00034640       0x21 ./Common/Devices/DeviceManager.o
                                 0x30 (size before relaxing)
 *fill*         0x00034661        0x7 00
 .rodata        0x00034668       0x50 ./Common/Devices/PluggableDevicesProvider.o
                0x00034668                _ZTV24PluggableDevicesProvider
                0x0003468c                _ZTS24PluggableDevicesProvider
                0x000346a8                _ZTI24PluggableDevicesProvider
 .rodata.str1.4
                0x000346b8       0xc0 ./Common/Devices/PluggableDevicesProvider.o
                                0x174 (size before relaxing)

.rodata1
 *(.rodata1)

.ARM.extab      0x00034778     0x15d0
 *(.ARM.extab* .gnu.linkonce.armextab.*)
 .ARM.extab     0x00034778        0x0 /usr/lib/gcc/arm-linux-gnueabihf/4.6/../../../arm-linux-gnueabihf/crt1.o
 .ARM.extab.text.startup
                0x00034778       0x30 ./agilartRT.o
 .ARM.extab     0x000347a8      0x5e4 ./WebServer/WebServer.o
 .ARM.extab.text._ZN15DeviceParameterD2Ev
                0x00034d8c        0x0 ./WebServer/WebServer.o
 .ARM.extab.text._ZStplIcSt11char_traitsIcESaIcEESbIT_T0_T1_EPKS3_RKS6_
                0x00034d8c       0x14 ./WebServer/WebServer.o
 .ARM.extab.text._ZStplIcSt11char_traitsIcESaIcEESbIT_T0_T1_ERKS6_S8_
                0x00034da0       0x18 ./WebServer/WebServer.o
 .ARM.extab.text._ZNSt6vectorISsSaISsEED2Ev
                0x00034db8        0x0 ./WebServer/WebServer.o
 .ARM.extab.text._ZNSt8_Rb_treeISsSt4pairIKSsSsESt10_Select1stIS2_ESt4lessISsESaIS2_EE8_M_eraseEPSt13_Rb_tree_nodeIS2_E
                0x00034db8        0x0 ./WebServer/WebServer.o
 .ARM.extab.text._ZNSt6vectorISsSaISsEE13_M_insert_auxEN9__gnu_cxx17__normal_iteratorIPSsS1_EERKSs
                0x00034db8       0x54 ./WebServer/WebServer.o
 .ARM.extab.text._ZNSt8_Rb_treeISsSt4pairIKSsSsESt10_Select1stIS2_ESt4lessISsESaIS2_EE7_M_copyEPKSt13_Rb_tree_nodeIS2_EPSA_
                0x00034e0c       0x58 ./WebServer/WebServer.o
 .ARM.extab.text._ZNSt8_Rb_treeISsSt4pairIKSsSsESt10_Select1stIS2_ESt4lessISsESaIS2_EE10_M_insert_EPKSt18_Rb_tree_node_baseSB_RKS2_
                0x00034e64       0x34 ./WebServer/WebServer.o
 .ARM.extab.text._ZNSt8_Rb_treeISsSt4pairIKSsSsESt10_Select1stIS2_ESt4lessISsESaIS2_EE16_M_insert_uniqueERKS2_
                0x00034e98        0x0 ./WebServer/WebServer.o
 .ARM.extab.text._ZNSt8_Rb_treeISsSt4pairIKSsSsESt10_Select1stIS2_ESt4lessISsESaIS2_EE17_M_insert_unique_ESt23_Rb_tree_const_iteratorIS2_ERKS2_
                0x00034e98        0x0 ./WebServer/WebServer.o
 .ARM.extab.text.startup
                0x00034e98        0x0 ./WebServer/WebServer.o
 .ARM.extab     0x00034e98       0x64 ./DaemonUtils/DaemonService.o
 .ARM.extab.text.startup
                0x00034efc        0x0 ./DaemonUtils/DaemonService.o
 .ARM.extab     0x00034efc      0x4c0 ./Common/ProgramManager.o
 .ARM.extab.text._ZNSt4listISsSaISsEED2Ev
                0x000353bc        0x0 ./Common/ProgramManager.o
 .ARM.extab.text._ZNSt8_Rb_treeIiSt4pairIKiSsESt10_Select1stIS2_ESt4lessIiESaIS2_EE8_M_eraseEPSt13_Rb_tree_nodeIS2_E
                0x000353bc        0x0 ./Common/ProgramManager.o
 .ARM.extab.text._ZNSt8_Rb_treeIiSt4pairIKiP7ProcessESt10_Select1stIS4_ESt4lessIiESaIS4_EE8_M_eraseEPSt13_Rb_tree_nodeIS4_E
                0x000353bc        0x0 ./Common/ProgramManager.o
 .ARM.extab.text._ZNSt8_Rb_treeIiSt4pairIKiP7ProcessESt10_Select1stIS4_ESt4lessIiESaIS4_EE5eraseERS1_
                0x000353bc        0x0 ./Common/ProgramManager.o
 .ARM.extab.text._ZNSt8_Rb_treeIiSt4pairIKiSsESt10_Select1stIS2_ESt4lessIiESaIS2_EE10_M_insert_EPKSt18_Rb_tree_node_baseSB_RKS2_
                0x000353bc       0x28 ./Common/ProgramManager.o
 .ARM.extab.text._ZNSt8_Rb_treeIiSt4pairIKiSsESt10_Select1stIS2_ESt4lessIiESaIS2_EE16_M_insert_uniqueERKS2_
                0x000353e4        0x0 ./Common/ProgramManager.o
 .ARM.extab.text._ZNSt8_Rb_treeIiSt4pairIKiSsESt10_Select1stIS2_ESt4lessIiESaIS2_EE17_M_insert_unique_ESt23_Rb_tree_const_iteratorIS2_ERKS2_
                0x000353e4        0x0 ./Common/ProgramManager.o
 .ARM.extab.text._ZNSt8_Rb_treeIiSt4pairIKiP7ProcessESt10_Select1stIS4_ESt4lessIiESaIS4_EE10_M_insert_EPKSt18_Rb_tree_node_baseSD_RKS4_
                0x000353e4        0xc ./Common/ProgramManager.o
 .ARM.extab.text._ZNSt8_Rb_treeIiSt4pairIKiP7ProcessESt10_Select1stIS4_ESt4lessIiESaIS4_EE16_M_insert_uniqueERKS4_
                0x000353f0        0x0 ./Common/ProgramManager.o
 .ARM.extab.text._ZNSt8_Rb_treeIiSt4pairIKiP7ProcessESt10_Select1stIS4_ESt4lessIiESaIS4_EE17_M_insert_unique_ESt23_Rb_tree_const_iteratorIS4_ERKS4_
                0x000353f0        0x0 ./Common/ProgramManager.o
 .ARM.extab.text._ZNSt8_Rb_treeIiSt4pairIKiSsESt10_Select1stIS2_ESt4lessIiESaIS2_EE12_M_erase_auxESt23_Rb_tree_const_iteratorIS2_ESA_
                0x000353f0        0x0 ./Common/ProgramManager.o
 .ARM.extab.text._ZNSt8_Rb_treeIiSt4pairIKiSsESt10_Select1stIS2_ESt4lessIiESaIS2_EE5eraseERS1_
                0x000353f0        0x0 ./Common/ProgramManager.o
 .ARM.extab.text.startup
                0x000353f0        0x0 ./Common/ProgramManager.o
 .ARM.extab     0x000353f0      0x43c ./Common/UpcbJsonParser.o
 .ARM.extab.text._ZN23CommandParameterMappingD2Ev
                0x0003582c        0x0 ./Common/UpcbJsonParser.o
 .ARM.extab.text._ZN23CommandParameterMappingD0Ev
                0x0003582c        0x0 ./Common/UpcbJsonParser.o
 .ARM.extab.text.startup
                0x0003582c        0x0 ./Common/UpcbJsonParser.o
 .ARM.extab     0x0003582c      0x1d8 ./Common/Mappings/MappingManager.o
 .ARM.extab.text._ZNSt8_Rb_treeIP6PinoutSt4pairIKS1_P10BaseDriverESt10_Select1stIS6_ESt4lessIS1_ESaIS6_EE8_M_eraseEPSt13_Rb_tree_nodeIS6_E
                0x00035a04        0x0 ./Common/Mappings/MappingManager.o
 .ARM.extab.text._ZNSt8_Rb_treeIP10BaseDriverSt4pairIKS1_P6PinoutESt10_Select1stIS6_ESt4lessIS1_ESaIS6_EE8_M_eraseEPSt13_Rb_tree_nodeIS6_E
                0x00035a04        0x0 ./Common/Mappings/MappingManager.o
 .ARM.extab.text._ZNSt8_Rb_treeIP6PinoutSt4pairIKS1_P13PinoutMappingESt10_Select1stIS6_ESt4lessIS1_ESaIS6_EE8_M_eraseEPSt13_Rb_tree_nodeIS6_E
                0x00035a04        0x0 ./Common/Mappings/MappingManager.o
 .ARM.extab.text._ZNSt8_Rb_treeIP6PinoutSt4pairIKS1_P10BaseDeviceESt10_Select1stIS6_ESt4lessIS1_ESaIS6_EE8_M_eraseEPSt13_Rb_tree_nodeIS6_E
                0x00035a04        0x0 ./Common/Mappings/MappingManager.o
 .ARM.extab.text._ZNSt8_Rb_treeIP10BaseDriverSt4pairIKS1_P6PinoutESt10_Select1stIS6_ESt4lessIS1_ESaIS6_EE5eraseERS3_
                0x00035a04        0x0 ./Common/Mappings/MappingManager.o
 .ARM.extab.text._ZNSt8_Rb_treeIP6PinoutSt4pairIKS1_P10BaseDriverESt10_Select1stIS6_ESt4lessIS1_ESaIS6_EE5eraseERS3_
                0x00035a04        0x0 ./Common/Mappings/MappingManager.o
 .ARM.extab.text._ZNSt8_Rb_treeIP6PinoutSt4pairIKS1_P13PinoutMappingESt10_Select1stIS6_ESt4lessIS1_ESaIS6_EE5eraseERS3_
                0x00035a04        0x0 ./Common/Mappings/MappingManager.o
 .ARM.extab.text._ZNSt8_Rb_treeIP6PinoutSt4pairIKS1_P10BaseDeviceESt10_Select1stIS6_ESt4lessIS1_ESaIS6_EE5eraseERS3_
                0x00035a04        0x0 ./Common/Mappings/MappingManager.o
 .ARM.extab.text._ZNSt8_Rb_treeIP6PinoutSt4pairIKS1_P13PinoutMappingESt10_Select1stIS6_ESt4lessIS1_ESaIS6_EE10_M_insert_EPKSt18_Rb_tree_node_baseSF_RKS6_
                0x00035a04        0xc ./Common/Mappings/MappingManager.o
 .ARM.extab.text._ZNSt8_Rb_treeIP6PinoutSt4pairIKS1_P13PinoutMappingESt10_Select1stIS6_ESt4lessIS1_ESaIS6_EE16_M_insert_uniqueERKS6_
                0x00035a10        0x0 ./Common/Mappings/MappingManager.o
 .ARM.extab.text._ZNSt8_Rb_treeIP6PinoutSt4pairIKS1_P13PinoutMappingESt10_Select1stIS6_ESt4lessIS1_ESaIS6_EE17_M_insert_unique_ESt23_Rb_tree_const_iteratorIS6_ERKS6_
                0x00035a10        0x0 ./Common/Mappings/MappingManager.o
 .ARM.extab.text._ZNSt8_Rb_treeIP6PinoutSt4pairIKS1_P10BaseDriverESt10_Select1stIS6_ESt4lessIS1_ESaIS6_EE10_M_insert_EPKSt18_Rb_tree_node_baseSF_RKS6_
                0x00035a10        0xc ./Common/Mappings/MappingManager.o
 .ARM.extab.text._ZNSt8_Rb_treeIP6PinoutSt4pairIKS1_P10BaseDriverESt10_Select1stIS6_ESt4lessIS1_ESaIS6_EE16_M_insert_uniqueERKS6_
                0x00035a1c        0x0 ./Common/Mappings/MappingManager.o
 .ARM.extab.text._ZNSt8_Rb_treeIP6PinoutSt4pairIKS1_P10BaseDriverESt10_Select1stIS6_ESt4lessIS1_ESaIS6_EE17_M_insert_unique_ESt23_Rb_tree_const_iteratorIS6_ERKS6_
                0x00035a1c        0x0 ./Common/Mappings/MappingManager.o
 .ARM.extab.text._ZNSt8_Rb_treeIP10BaseDriverSt4pairIKS1_P6PinoutESt10_Select1stIS6_ESt4lessIS1_ESaIS6_EE10_M_insert_EPKSt18_Rb_tree_node_baseSF_RKS6_
                0x00035a1c        0xc ./Common/Mappings/MappingManager.o
 .ARM.extab.text._ZNSt8_Rb_treeIP10BaseDriverSt4pairIKS1_P6PinoutESt10_Select1stIS6_ESt4lessIS1_ESaIS6_EE16_M_insert_uniqueERKS6_
                0x00035a28        0x0 ./Common/Mappings/MappingManager.o
 .ARM.extab.text._ZNSt8_Rb_treeIP10BaseDriverSt4pairIKS1_P6PinoutESt10_Select1stIS6_ESt4lessIS1_ESaIS6_EE17_M_insert_unique_ESt23_Rb_tree_const_iteratorIS6_ERKS6_
                0x00035a28        0x0 ./Common/Mappings/MappingManager.o
 .ARM.extab.text._ZNSt8_Rb_treeIP6PinoutSt4pairIKS1_P10BaseDeviceESt10_Select1stIS6_ESt4lessIS1_ESaIS6_EE10_M_insert_EPKSt18_Rb_tree_node_baseSF_RKS6_
                0x00035a28        0xc ./Common/Mappings/MappingManager.o
 .ARM.extab.text._ZNSt8_Rb_treeIP6PinoutSt4pairIKS1_P10BaseDeviceESt10_Select1stIS6_ESt4lessIS1_ESaIS6_EE16_M_insert_uniqueERKS6_
                0x00035a34        0x0 ./Common/Mappings/MappingManager.o
 .ARM.extab.text._ZNSt8_Rb_treeIP6PinoutSt4pairIKS1_P10BaseDeviceESt10_Select1stIS6_ESt4lessIS1_ESaIS6_EE17_M_insert_unique_ESt23_Rb_tree_const_iteratorIS6_ERKS6_
                0x00035a34        0x0 ./Common/Mappings/MappingManager.o
 .ARM.extab.text.startup
                0x00035a34        0x0 ./Common/Mappings/MappingManager.o
 .ARM.extab     0x00035a34       0x14 ./Common/Mappings/PinoutMapping.o
 .ARM.extab.text.startup
                0x00035a48        0x0 ./Common/Mappings/PinoutMapping.o
 .ARM.extab     0x00035a48       0x2c ./Common/Mappings/ProgramMapping.o
 .ARM.extab.text.startup
                0x00035a74        0x0 ./Common/Mappings/ProgramMapping.o
 .ARM.extab     0x00035a74        0x0 ./Common/Drivers/BaseDriversProvider.o
 .ARM.extab.text.startup
                0x00035a74        0x0 ./Common/Drivers/BaseDriversProvider.o
 .ARM.extab     0x00035a74       0x48 ./Common/Drivers/DriversManager.o
 .ARM.extab.text._ZNSt4listIP10BaseDriverSaIS1_EED2Ev
                0x00035abc        0x0 ./Common/Drivers/DriversManager.o
 .ARM.extab.text._ZNSt4listIP10BaseDriverSaIS1_EEaSERKS3_
                0x00035abc       0x18 ./Common/Drivers/DriversManager.o
 .ARM.extab.text.startup
                0x00035ad4        0x0 ./Common/Drivers/DriversManager.o
 .ARM.extab     0x00035ad4       0xd4 ./Common/Drivers/PluggableDriversProvider.o
 .ARM.extab.text._ZNSt8_Rb_treeIPKcSt4pairIKS1_P10BaseDriverESt10_Select1stIS6_ESt4lessIS1_ESaIS6_EE8_M_eraseEPSt13_Rb_tree_nodeIS6_E
                0x00035ba8        0x0 ./Common/Drivers/PluggableDriversProvider.o
 .ARM.extab.text._ZNSt8_Rb_treeIPKcSt4pairIKS1_P10BaseDriverESt10_Select1stIS6_ESt4lessIS1_ESaIS6_EE10_M_insert_EPKSt18_Rb_tree_node_baseSF_RKS6_
                0x00035ba8        0xc ./Common/Drivers/PluggableDriversProvider.o
 .ARM.extab.text._ZNSt8_Rb_treeIPKcSt4pairIKS1_P10BaseDriverESt10_Select1stIS6_ESt4lessIS1_ESaIS6_EE16_M_insert_uniqueERKS6_
                0x00035bb4        0x0 ./Common/Drivers/PluggableDriversProvider.o
 .ARM.extab.text._ZNSt8_Rb_treeIPKcSt4pairIKS1_P10BaseDriverESt10_Select1stIS6_ESt4lessIS1_ESaIS6_EE17_M_insert_unique_ESt23_Rb_tree_const_iteratorIS6_ERKS6_
                0x00035bb4        0x0 ./Common/Drivers/PluggableDriversProvider.o
 .ARM.extab.text.startup
                0x00035bb4        0x0 ./Common/Drivers/PluggableDriversProvider.o
 .ARM.extab     0x00035bb4        0x0 ./Common/Devices/BaseDevicesProvider.o
 .ARM.extab.text.startup
                0x00035bb4        0x0 ./Common/Devices/BaseDevicesProvider.o
 .ARM.extab     0x00035bb4       0x48 ./Common/Devices/DeviceManager.o
 .ARM.extab.text._ZNSt4listIP10BaseDeviceSaIS1_EED2Ev
                0x00035bfc        0x0 ./Common/Devices/DeviceManager.o
 .ARM.extab.text._ZNSt4listIP10BaseDeviceSaIS1_EEaSERKS3_
                0x00035bfc       0x18 ./Common/Devices/DeviceManager.o
 .ARM.extab.text.startup
                0x00035c14        0x0 ./Common/Devices/DeviceManager.o
 .ARM.extab     0x00035c14      0x128 ./Common/Devices/PluggableDevicesProvider.o
 .ARM.extab.text._ZNSt8_Rb_treeIPKcSt4pairIKS1_P10BaseDeviceESt10_Select1stIS6_ESt4lessIS1_ESaIS6_EE8_M_eraseEPSt13_Rb_tree_nodeIS6_E
                0x00035d3c        0x0 ./Common/Devices/PluggableDevicesProvider.o
 .ARM.extab.text._ZNSt8_Rb_treeIPKcSt4pairIKS1_P10BaseDeviceESt10_Select1stIS6_ESt4lessIS1_ESaIS6_EE10_M_insert_EPKSt18_Rb_tree_node_baseSF_RKS6_
                0x00035d3c        0xc ./Common/Devices/PluggableDevicesProvider.o
 .ARM.extab.text._ZNSt8_Rb_treeIPKcSt4pairIKS1_P10BaseDeviceESt10_Select1stIS6_ESt4lessIS1_ESaIS6_EE16_M_insert_uniqueERKS6_
                0x00035d48        0x0 ./Common/Devices/PluggableDevicesProvider.o
 .ARM.extab.text._ZNSt8_Rb_treeIPKcSt4pairIKS1_P10BaseDeviceESt10_Select1stIS6_ESt4lessIS1_ESaIS6_EE17_M_insert_unique_ESt23_Rb_tree_const_iteratorIS6_ERKS6_
                0x00035d48        0x0 ./Common/Devices/PluggableDevicesProvider.o
 .ARM.extab.text.startup
                0x00035d48        0x0 ./Common/Devices/PluggableDevicesProvider.o
                0x00035d48                PROVIDE (__exidx_start, .)

.ARM.exidx      0x00035d48      0x4e8
 *(.ARM.exidx* .gnu.linkonce.armexidx.*)
 .ARM.exidx     0x00035d58        0x0 /usr/lib/gcc/arm-linux-gnueabihf/4.6/../../../arm-linux-gnueabihf/crt1.o
                                  0x8 (size before relaxing)
 .ARM.exidx.text.startup
                0x00035d48       0x10 ./agilartRT.o
 .ARM.exidx     0x00035d58       0xc0 ./WebServer/WebServer.o
                                 0xf0 (size before relaxing)
 .ARM.exidx.text._ZN15DeviceParameterD2Ev
                0x00035e18        0x8 ./WebServer/WebServer.o
 .ARM.exidx.text._ZStplIcSt11char_traitsIcESaIcEESbIT_T0_T1_EPKS3_RKS6_
                0x00035e20        0x8 ./WebServer/WebServer.o
 .ARM.exidx.text._ZStplIcSt11char_traitsIcESaIcEESbIT_T0_T1_ERKS6_S8_
                0x00035e28        0x8 ./WebServer/WebServer.o
 .ARM.exidx.text._ZNSt6vectorISsSaISsEED2Ev
                0x00035e30        0x8 ./WebServer/WebServer.o
 .ARM.exidx.text._ZNSt8_Rb_treeISsSt4pairIKSsSsESt10_Select1stIS2_ESt4lessISsESaIS2_EE8_M_eraseEPSt13_Rb_tree_nodeIS2_E
                0x00035e38        0x0 ./WebServer/WebServer.o
                                  0x8 (size before relaxing)
 .ARM.exidx.text._ZNSt6vectorISsSaISsEE13_M_insert_auxEN9__gnu_cxx17__normal_iteratorIPSsS1_EERKSs
                0x00035e38        0x8 ./WebServer/WebServer.o
 .ARM.exidx.text._ZNSt8_Rb_treeISsSt4pairIKSsSsESt10_Select1stIS2_ESt4lessISsESaIS2_EE7_M_copyEPKSt13_Rb_tree_nodeIS2_EPSA_
                0x00035e40        0x8 ./WebServer/WebServer.o
 .ARM.exidx.text._ZNSt8_Rb_treeISsSt4pairIKSsSsESt10_Select1stIS2_ESt4lessISsESaIS2_EE10_M_insert_EPKSt18_Rb_tree_node_baseSB_RKS2_
                0x00035e48        0x8 ./WebServer/WebServer.o
 .ARM.exidx.text._ZNSt8_Rb_treeISsSt4pairIKSsSsESt10_Select1stIS2_ESt4lessISsESaIS2_EE16_M_insert_uniqueERKS2_
                0x00035e50        0x8 ./WebServer/WebServer.o
 .ARM.exidx.text._ZNSt8_Rb_treeISsSt4pairIKSsSsESt10_Select1stIS2_ESt4lessISsESaIS2_EE17_M_insert_unique_ESt23_Rb_tree_const_iteratorIS2_ERKS2_
                0x00035e58        0x8 ./WebServer/WebServer.o
 .ARM.exidx.text.startup
                0x00035d58        0x0 ./WebServer/WebServer.o
                                  0x8 (size before relaxing)
 .ARM.exidx     0x00035e60       0x30 ./DaemonUtils/DaemonService.o
                                 0x40 (size before relaxing)
 .ARM.exidx.text.startup
                0x00035d58        0x0 ./DaemonUtils/DaemonService.o
                                  0x8 (size before relaxing)
 .ARM.exidx     0x00035e90       0x98 ./Common/ProgramManager.o
 .ARM.exidx.text._ZNSt4listISsSaISsEED2Ev
                0x00035f28        0x8 ./Common/ProgramManager.o
 .ARM.exidx.text._ZNSt8_Rb_treeIiSt4pairIKiSsESt10_Select1stIS2_ESt4lessIiESaIS2_EE8_M_eraseEPSt13_Rb_tree_nodeIS2_E
                0x00035f30        0x0 ./Common/ProgramManager.o
                                  0x8 (size before relaxing)
 .ARM.exidx.text._ZNSt8_Rb_treeIiSt4pairIKiP7ProcessESt10_Select1stIS4_ESt4lessIiESaIS4_EE8_M_eraseEPSt13_Rb_tree_nodeIS4_E
                0x00035f30        0x0 ./Common/ProgramManager.o
                                  0x8 (size before relaxing)
 .ARM.exidx.text._ZNSt8_Rb_treeIiSt4pairIKiP7ProcessESt10_Select1stIS4_ESt4lessIiESaIS4_EE5eraseERS1_
                0x00035f30        0x0 ./Common/ProgramManager.o
                                  0x8 (size before relaxing)
 .ARM.exidx.text._ZNSt8_Rb_treeIiSt4pairIKiSsESt10_Select1stIS2_ESt4lessIiESaIS2_EE10_M_insert_EPKSt18_Rb_tree_node_baseSB_RKS2_
                0x00035f30        0x8 ./Common/ProgramManager.o
 .ARM.exidx.text._ZNSt8_Rb_treeIiSt4pairIKiSsESt10_Select1stIS2_ESt4lessIiESaIS2_EE16_M_insert_uniqueERKS2_
                0x00035f38        0x8 ./Common/ProgramManager.o
 .ARM.exidx.text._ZNSt8_Rb_treeIiSt4pairIKiSsESt10_Select1stIS2_ESt4lessIiESaIS2_EE17_M_insert_unique_ESt23_Rb_tree_const_iteratorIS2_ERKS2_
                0x00035f40        0x8 ./Common/ProgramManager.o
 .ARM.exidx.text._ZNSt8_Rb_treeIiSt4pairIKiP7ProcessESt10_Select1stIS4_ESt4lessIiESaIS4_EE10_M_insert_EPKSt18_Rb_tree_node_baseSD_RKS4_
                0x00035f48        0x8 ./Common/ProgramManager.o
 .ARM.exidx.text._ZNSt8_Rb_treeIiSt4pairIKiP7ProcessESt10_Select1stIS4_ESt4lessIiESaIS4_EE16_M_insert_uniqueERKS4_
                0x00035f50        0x8 ./Common/ProgramManager.o
 .ARM.exidx.text._ZNSt8_Rb_treeIiSt4pairIKiP7ProcessESt10_Select1stIS4_ESt4lessIiESaIS4_EE17_M_insert_unique_ESt23_Rb_tree_const_iteratorIS4_ERKS4_
                0x00035f58        0x8 ./Common/ProgramManager.o
 .ARM.exidx.text._ZNSt8_Rb_treeIiSt4pairIKiSsESt10_Select1stIS2_ESt4lessIiESaIS2_EE12_M_erase_auxESt23_Rb_tree_const_iteratorIS2_ESA_
                0x00035f60        0x8 ./Common/ProgramManager.o
 .ARM.exidx.text._ZNSt8_Rb_treeIiSt4pairIKiSsESt10_Select1stIS2_ESt4lessIiESaIS2_EE5eraseERS1_
                0x00035f68        0x0 ./Common/ProgramManager.o
                                  0x8 (size before relaxing)
 .ARM.exidx.text.startup
                0x00035d58        0x0 ./Common/ProgramManager.o
                                  0x8 (size before relaxing)
 .ARM.exidx     0x00035f68       0x30 ./Common/UpcbJsonParser.o
                                 0x48 (size before relaxing)
 .ARM.exidx.text._ZN23CommandParameterMappingD2Ev
                0x00035f98        0x8 ./Common/UpcbJsonParser.o
 .ARM.exidx.text._ZN23CommandParameterMappingD0Ev
                0x00035fa0        0x0 ./Common/UpcbJsonParser.o
                                  0x8 (size before relaxing)
 .ARM.exidx.text.startup
                0x00035d58        0x0 ./Common/UpcbJsonParser.o
                                  0x8 (size before relaxing)
 .ARM.exidx     0x00035fa0       0x48 ./Common/Mappings/MappingManager.o
                                 0x58 (size before relaxing)
 .ARM.exidx.text._ZNSt8_Rb_treeIP6PinoutSt4pairIKS1_P10BaseDriverESt10_Select1stIS6_ESt4lessIS1_ESaIS6_EE8_M_eraseEPSt13_Rb_tree_nodeIS6_E
                0x00035fe8        0x8 ./Common/Mappings/MappingManager.o
 .ARM.exidx.text._ZNSt8_Rb_treeIP10BaseDriverSt4pairIKS1_P6PinoutESt10_Select1stIS6_ESt4lessIS1_ESaIS6_EE8_M_eraseEPSt13_Rb_tree_nodeIS6_E
                0x00035ff0        0x0 ./Common/Mappings/MappingManager.o
                                  0x8 (size before relaxing)
 .ARM.exidx.text._ZNSt8_Rb_treeIP6PinoutSt4pairIKS1_P13PinoutMappingESt10_Select1stIS6_ESt4lessIS1_ESaIS6_EE8_M_eraseEPSt13_Rb_tree_nodeIS6_E
                0x00035ff0        0x0 ./Common/Mappings/MappingManager.o
                                  0x8 (size before relaxing)
 .ARM.exidx.text._ZNSt8_Rb_treeIP6PinoutSt4pairIKS1_P10BaseDeviceESt10_Select1stIS6_ESt4lessIS1_ESaIS6_EE8_M_eraseEPSt13_Rb_tree_nodeIS6_E
                0x00035ff0        0x0 ./Common/Mappings/MappingManager.o
                                  0x8 (size before relaxing)
 .ARM.exidx.text._ZNSt8_Rb_treeIP10BaseDriverSt4pairIKS1_P6PinoutESt10_Select1stIS6_ESt4lessIS1_ESaIS6_EE5eraseERS3_
                0x00035ff0        0x0 ./Common/Mappings/MappingManager.o
                                  0x8 (size before relaxing)
 .ARM.exidx.text._ZNSt8_Rb_treeIP6PinoutSt4pairIKS1_P10BaseDriverESt10_Select1stIS6_ESt4lessIS1_ESaIS6_EE5eraseERS3_
                0x00035ff0        0x0 ./Common/Mappings/MappingManager.o
                                  0x8 (size before relaxing)
 .ARM.exidx.text._ZNSt8_Rb_treeIP6PinoutSt4pairIKS1_P13PinoutMappingESt10_Select1stIS6_ESt4lessIS1_ESaIS6_EE5eraseERS3_
                0x00035ff0        0x0 ./Common/Mappings/MappingManager.o
                                  0x8 (size before relaxing)
 .ARM.exidx.text._ZNSt8_Rb_treeIP6PinoutSt4pairIKS1_P10BaseDeviceESt10_Select1stIS6_ESt4lessIS1_ESaIS6_EE5eraseERS3_
                0x00035ff0        0x0 ./Common/Mappings/MappingManager.o
                                  0x8 (size before relaxing)
 .ARM.exidx.text._ZNSt8_Rb_treeIP6PinoutSt4pairIKS1_P13PinoutMappingESt10_Select1stIS6_ESt4lessIS1_ESaIS6_EE10_M_insert_EPKSt18_Rb_tree_node_baseSF_RKS6_
                0x00035ff0        0x8 ./Common/Mappings/MappingManager.o
 .ARM.exidx.text._ZNSt8_Rb_treeIP6PinoutSt4pairIKS1_P13PinoutMappingESt10_Select1stIS6_ESt4lessIS1_ESaIS6_EE16_M_insert_uniqueERKS6_
                0x00035ff8        0x8 ./Common/Mappings/MappingManager.o
 .ARM.exidx.text._ZNSt8_Rb_treeIP6PinoutSt4pairIKS1_P13PinoutMappingESt10_Select1stIS6_ESt4lessIS1_ESaIS6_EE17_M_insert_unique_ESt23_Rb_tree_const_iteratorIS6_ERKS6_
                0x00036000        0x8 ./Common/Mappings/MappingManager.o
 .ARM.exidx.text._ZNSt8_Rb_treeIP6PinoutSt4pairIKS1_P10BaseDriverESt10_Select1stIS6_ESt4lessIS1_ESaIS6_EE10_M_insert_EPKSt18_Rb_tree_node_baseSF_RKS6_
                0x00036008        0x8 ./Common/Mappings/MappingManager.o
 .ARM.exidx.text._ZNSt8_Rb_treeIP6PinoutSt4pairIKS1_P10BaseDriverESt10_Select1stIS6_ESt4lessIS1_ESaIS6_EE16_M_insert_uniqueERKS6_
                0x00036010        0x8 ./Common/Mappings/MappingManager.o
 .ARM.exidx.text._ZNSt8_Rb_treeIP6PinoutSt4pairIKS1_P10BaseDriverESt10_Select1stIS6_ESt4lessIS1_ESaIS6_EE17_M_insert_unique_ESt23_Rb_tree_const_iteratorIS6_ERKS6_
                0x00036018        0x8 ./Common/Mappings/MappingManager.o
 .ARM.exidx.text._ZNSt8_Rb_treeIP10BaseDriverSt4pairIKS1_P6PinoutESt10_Select1stIS6_ESt4lessIS1_ESaIS6_EE10_M_insert_EPKSt18_Rb_tree_node_baseSF_RKS6_
                0x00036020        0x8 ./Common/Mappings/MappingManager.o
 .ARM.exidx.text._ZNSt8_Rb_treeIP10BaseDriverSt4pairIKS1_P6PinoutESt10_Select1stIS6_ESt4lessIS1_ESaIS6_EE16_M_insert_uniqueERKS6_
                0x00036028        0x8 ./Common/Mappings/MappingManager.o
 .ARM.exidx.text._ZNSt8_Rb_treeIP10BaseDriverSt4pairIKS1_P6PinoutESt10_Select1stIS6_ESt4lessIS1_ESaIS6_EE17_M_insert_unique_ESt23_Rb_tree_const_iteratorIS6_ERKS6_
                0x00036030        0x8 ./Common/Mappings/MappingManager.o
 .ARM.exidx.text._ZNSt8_Rb_treeIP6PinoutSt4pairIKS1_P10BaseDeviceESt10_Select1stIS6_ESt4lessIS1_ESaIS6_EE10_M_insert_EPKSt18_Rb_tree_node_baseSF_RKS6_
                0x00036038        0x8 ./Common/Mappings/MappingManager.o
 .ARM.exidx.text._ZNSt8_Rb_treeIP6PinoutSt4pairIKS1_P10BaseDeviceESt10_Select1stIS6_ESt4lessIS1_ESaIS6_EE16_M_insert_uniqueERKS6_
                0x00036040        0x8 ./Common/Mappings/MappingManager.o
 .ARM.exidx.text._ZNSt8_Rb_treeIP6PinoutSt4pairIKS1_P10BaseDeviceESt10_Select1stIS6_ESt4lessIS1_ESaIS6_EE17_M_insert_unique_ESt23_Rb_tree_const_iteratorIS6_ERKS6_
                0x00036048        0x8 ./Common/Mappings/MappingManager.o
 .ARM.exidx.text.startup
                0x00035d58        0x0 ./Common/Mappings/MappingManager.o
                                  0x8 (size before relaxing)
 .ARM.exidx     0x00036050       0x30 ./Common/Mappings/PinoutMapping.o
                                 0x50 (size before relaxing)
 .ARM.exidx.text.startup
                0x00035d58        0x0 ./Common/Mappings/PinoutMapping.o
                                  0x8 (size before relaxing)
 .ARM.exidx     0x00036080       0x30 ./Common/Mappings/ProgramMapping.o
 .ARM.exidx.text.startup
                0x00035d58        0x0 ./Common/Mappings/ProgramMapping.o
                                  0x8 (size before relaxing)
 .ARM.exidx     0x000360b0        0x0 ./Common/Drivers/BaseDriversProvider.o
                                 0x18 (size before relaxing)
 .ARM.exidx.text.startup
                0x00035d58        0x0 ./Common/Drivers/BaseDriversProvider.o
                                  0x8 (size before relaxing)
 .ARM.exidx     0x000360b0       0x30 ./Common/Drivers/DriversManager.o
                                 0x40 (size before relaxing)
 .ARM.exidx.text._ZNSt4listIP10BaseDriverSaIS1_EED2Ev
                0x000360e0        0x8 ./Common/Drivers/DriversManager.o
 .ARM.exidx.text._ZNSt4listIP10BaseDriverSaIS1_EEaSERKS3_
                0x000360e8        0x8 ./Common/Drivers/DriversManager.o
 .ARM.exidx.text.startup
                0x00035d58        0x0 ./Common/Drivers/DriversManager.o
                                  0x8 (size before relaxing)
 .ARM.exidx     0x000360f0       0x50 ./Common/Drivers/PluggableDriversProvider.o
                                 0x58 (size before relaxing)
 .ARM.exidx.text._ZNSt8_Rb_treeIPKcSt4pairIKS1_P10BaseDriverESt10_Select1stIS6_ESt4lessIS1_ESaIS6_EE8_M_eraseEPSt13_Rb_tree_nodeIS6_E
                0x00036140        0x8 ./Common/Drivers/PluggableDriversProvider.o
 .ARM.exidx.text._ZNSt8_Rb_treeIPKcSt4pairIKS1_P10BaseDriverESt10_Select1stIS6_ESt4lessIS1_ESaIS6_EE10_M_insert_EPKSt18_Rb_tree_node_baseSF_RKS6_
                0x00036148        0x8 ./Common/Drivers/PluggableDriversProvider.o
 .ARM.exidx.text._ZNSt8_Rb_treeIPKcSt4pairIKS1_P10BaseDriverESt10_Select1stIS6_ESt4lessIS1_ESaIS6_EE16_M_insert_uniqueERKS6_
                0x00036150        0x8 ./Common/Drivers/PluggableDriversProvider.o
 .ARM.exidx.text._ZNSt8_Rb_treeIPKcSt4pairIKS1_P10BaseDriverESt10_Select1stIS6_ESt4lessIS1_ESaIS6_EE17_M_insert_unique_ESt23_Rb_tree_const_iteratorIS6_ERKS6_
                0x00036158        0x8 ./Common/Drivers/PluggableDriversProvider.o
 .ARM.exidx.text.startup
                0x00035d58        0x0 ./Common/Drivers/PluggableDriversProvider.o
                                  0x8 (size before relaxing)
 .ARM.exidx     0x00036160        0x8 ./Common/Devices/BaseDevicesProvider.o
                                 0x20 (size before relaxing)
 .ARM.exidx.text.startup
                0x00035d58        0x0 ./Common/Devices/BaseDevicesProvider.o
                                  0x8 (size before relaxing)
 .ARM.exidx     0x00036168       0x30 ./Common/Devices/DeviceManager.o
                                 0x48 (size before relaxing)
 .ARM.exidx.text._ZNSt4listIP10BaseDeviceSaIS1_EED2Ev
                0x00036198        0x8 ./Common/Devices/DeviceManager.o
 .ARM.exidx.text._ZNSt4listIP10BaseDeviceSaIS1_EEaSERKS3_
                0x000361a0        0x8 ./Common/Devices/DeviceManager.o
 .ARM.exidx.text.startup
                0x00035d58        0x0 ./Common/Devices/DeviceManager.o
                                  0x8 (size before relaxing)
 .ARM.exidx     0x000361a8       0x60 ./Common/Devices/PluggableDevicesProvider.o
                                 0x68 (size before relaxing)
 .ARM.exidx.text._ZNSt8_Rb_treeIPKcSt4pairIKS1_P10BaseDeviceESt10_Select1stIS6_ESt4lessIS1_ESaIS6_EE8_M_eraseEPSt13_Rb_tree_nodeIS6_E
                0x00036208        0x8 ./Common/Devices/PluggableDevicesProvider.o
 .ARM.exidx.text._ZNSt8_Rb_treeIPKcSt4pairIKS1_P10BaseDeviceESt10_Select1stIS6_ESt4lessIS1_ESaIS6_EE10_M_insert_EPKSt18_Rb_tree_node_baseSF_RKS6_
                0x00036210        0x8 ./Common/Devices/PluggableDevicesProvider.o
 .ARM.exidx.text._ZNSt8_Rb_treeIPKcSt4pairIKS1_P10BaseDeviceESt10_Select1stIS6_ESt4lessIS1_ESaIS6_EE16_M_insert_uniqueERKS6_
                0x00036218        0x8 ./Common/Devices/PluggableDevicesProvider.o
 .ARM.exidx.text._ZNSt8_Rb_treeIPKcSt4pairIKS1_P10BaseDeviceESt10_Select1stIS6_ESt4lessIS1_ESaIS6_EE17_M_insert_unique_ESt23_Rb_tree_const_iteratorIS6_ERKS6_
                0x00036220       0x10 ./Common/Devices/PluggableDevicesProvider.o
                                  0x8 (size before relaxing)
 .ARM.exidx.text.startup
                0x00035d58        0x0 ./Common/Devices/PluggableDevicesProvider.o
                                  0x8 (size before relaxing)
                0x00036230                PROVIDE (__exidx_end, .)

.eh_frame_hdr   0x00036230        0x0
 *(.eh_frame_hdr)
 .eh_frame_hdr  0x00000000        0x0 /usr/lib/gcc/arm-linux-gnueabihf/4.6/../../../arm-linux-gnueabihf/crtn.o

.eh_frame       0x00036230        0x4
 *(.eh_frame)
 .eh_frame      0x00036230        0x4 /usr/lib/gcc/arm-linux-gnueabihf/4.6/crtend.o

.gcc_except_table
 *(.gcc_except_table .gcc_except_table.*)

.exception_ranges
 *(.exception_ranges .exception_ranges*)
                0x00036234                . = (ALIGN (0x8000) - ((0x8000 - .) & 0x7fff))
                0x0003e234                . = DATA_SEGMENT_ALIGN (0x8000, 0x1000)

.eh_frame
 *(.eh_frame)

.gcc_except_table
 *(.gcc_except_table .gcc_except_table.*)

.exception_ranges
 *(.exception_ranges .exception_ranges*)

.tdata
 *(.tdata .tdata.* .gnu.linkonce.td.*)

.tbss
 *(.tbss .tbss.* .gnu.linkonce.tb.*)
 *(.tcommon)

.preinit_array  0x0003e234        0x0
                0x0003e234                PROVIDE (__preinit_array_start, .)
 *(.preinit_array)
                0x0003e234                PROVIDE (__preinit_array_end, .)

.init_array     0x0003e234       0x3c
                0x0003e234                PROVIDE (__init_array_start, .)
 *(SORT(.init_array.*) SORT(.ctors.*))
 *(.init_array)
 .init_array    0x0003e234        0x4 /usr/lib/gcc/arm-linux-gnueabihf/4.6/crtbegin.o
 .init_array    0x0003e238        0x4 ./agilartRT.o
 .init_array    0x0003e23c        0x4 ./WebServer/WebServer.o
 .init_array    0x0003e240        0x4 ./DaemonUtils/DaemonService.o
 .init_array    0x0003e244        0x4 ./Common/ProgramManager.o
 .init_array    0x0003e248        0x4 ./Common/UpcbJsonParser.o
 .init_array    0x0003e24c        0x4 ./Common/Mappings/MappingManager.o
 .init_array    0x0003e250        0x4 ./Common/Mappings/PinoutMapping.o
 .init_array    0x0003e254        0x4 ./Common/Mappings/ProgramMapping.o
 .init_array    0x0003e258        0x4 ./Common/Drivers/BaseDriversProvider.o
 .init_array    0x0003e25c        0x4 ./Common/Drivers/DriversManager.o
 .init_array    0x0003e260        0x4 ./Common/Drivers/PluggableDriversProvider.o
 .init_array    0x0003e264        0x4 ./Common/Devices/BaseDevicesProvider.o
 .init_array    0x0003e268        0x4 ./Common/Devices/DeviceManager.o
 .init_array    0x0003e26c        0x4 ./Common/Devices/PluggableDevicesProvider.o
 *(EXCLUDE_FILE(*crtend?.o *crtend.o *crtbegin?.o *crtbegin.o) .ctors)
                0x0003e270                PROVIDE (__init_array_end, .)

.fini_array     0x0003e270        0x4
                0x0003e270                PROVIDE (__fini_array_start, .)
 *(SORT(.fini_array.*) SORT(.dtors.*))
 *(.fini_array)
 .fini_array    0x0003e270        0x4 /usr/lib/gcc/arm-linux-gnueabihf/4.6/crtbegin.o
 *(EXCLUDE_FILE(*crtend?.o *crtend.o *crtbegin?.o *crtbegin.o) .dtors)
                0x0003e274                PROVIDE (__fini_array_end, .)

.ctors
 *crtbegin.o(.ctors)
 *crtbegin?.o(.ctors)
 *(EXCLUDE_FILE(*crtend?.o *crtend.o) .ctors)
 *(SORT(.ctors.*))
 *(.ctors)

.dtors
 *crtbegin.o(.dtors)
 *crtbegin?.o(.dtors)
 *(EXCLUDE_FILE(*crtend?.o *crtend.o) .dtors)
 *(SORT(.dtors.*))
 *(.dtors)

.jcr            0x0003e274        0x4
 *(.jcr)
 .jcr           0x0003e274        0x0 /usr/lib/gcc/arm-linux-gnueabihf/4.6/crtbegin.o
 .jcr           0x0003e274        0x4 /usr/lib/gcc/arm-linux-gnueabihf/4.6/crtend.o

.data.rel.ro
 *(.data.rel.ro.local* .gnu.linkonce.d.rel.ro.local.*)
 *(.data.rel.ro* .gnu.linkonce.d.rel.ro.*)

.dynamic        0x0003e278      0x140
 *(.dynamic)
 .dynamic       0x0003e278      0x140 /usr/lib/gcc/arm-linux-gnueabihf/4.6/../../../arm-linux-gnueabihf/crt1.o
                0x0003e278                _DYNAMIC
                0x0003e3b8                . = DATA_SEGMENT_RELRO_END (., 0x0)

.got            0x0003e3b8      0x3ac
 *(.got.plt)
 .got.plt       0x0003e3b8      0x3a8 /usr/lib/gcc/arm-linux-gnueabihf/4.6/../../../arm-linux-gnueabihf/crt1.o
                0x0003e3b8                _GLOBAL_OFFSET_TABLE_
 *(.igot.plt)
 .igot.plt      0x00000000        0x0 /usr/lib/gcc/arm-linux-gnueabihf/4.6/../../../arm-linux-gnueabihf/crt1.o
 *(.got)
 .got           0x0003e760        0x4 /usr/lib/gcc/arm-linux-gnueabihf/4.6/../../../arm-linux-gnueabihf/crt1.o
 *(.igot)

.data           0x0003e764      0x1e8
                0x0003e764                PROVIDE (__data_start, .)
 *(.data .data.* .gnu.linkonce.d.*)
 .data          0x0003e764        0x4 /usr/lib/gcc/arm-linux-gnueabihf/4.6/../../../arm-linux-gnueabihf/crt1.o
                0x0003e764                data_start
                0x0003e764                __data_start
 .data          0x0003e768        0x0 /usr/lib/gcc/arm-linux-gnueabihf/4.6/../../../arm-linux-gnueabihf/crti.o
 .data          0x0003e768        0x4 /usr/lib/gcc/arm-linux-gnueabihf/4.6/crtbegin.o
                0x0003e768                __dso_handle
 .data          0x0003e76c        0x0 ./agilartRT.o
 .data          0x0003e76c      0x1e0 ./WebServer/mongoose.o
 .data          0x0003e94c        0x0 ./WebServer/WebServer.o
 .data          0x0003e94c        0x0 ./DaemonUtils/DaemonService.o
 .data          0x0003e94c        0x0 ./Common/ProgramManager.o
 .data          0x0003e94c        0x0 ./Common/UpcbJsonParser.o
 .data          0x0003e94c        0x0 ./Common/Mappings/MappingManager.o
 .data          0x0003e94c        0x0 ./Common/Mappings/PinoutMapping.o
 .data          0x0003e94c        0x0 ./Common/Mappings/ProgramMapping.o
 .data          0x0003e94c        0x0 ./Common/Drivers/BaseDriversProvider.o
 .data          0x0003e94c        0x0 ./Common/Drivers/DriversManager.o
 .data          0x0003e94c        0x0 ./Common/Drivers/PluggableDriversProvider.o
 .data          0x0003e94c        0x0 ./Common/Devices/BaseDevicesProvider.o
 .data          0x0003e94c        0x0 ./Common/Devices/DeviceManager.o
 .data          0x0003e94c        0x0 ./Common/Devices/PluggableDevicesProvider.o
 .data          0x0003e94c        0x0 /usr/lib/arm-linux-gnueabihf/libc_nonshared.a(elf-init.oS)
 .data          0x0003e94c        0x0 /usr/lib/gcc/arm-linux-gnueabihf/4.6/crtend.o
 .data          0x0003e94c        0x0 /usr/lib/gcc/arm-linux-gnueabihf/4.6/../../../arm-linux-gnueabihf/crtn.o

.data1
 *(.data1)
                0x0003e94c                _edata = .
                0x0003e94c                PROVIDE (edata, .)
                0x0003e94c                __bss_start = .
                0x0003e94c                __bss_start__ = .

.bss            0x0003e950      0x56c
 *(.dynbss)
 .dynbss        0x0003e950      0x260 /usr/lib/gcc/arm-linux-gnueabihf/4.6/../../../arm-linux-gnueabihf/crt1.o
                0x0003e950                stdin@@GLIBC_2.4
                0x0003e954                _ZN14JsonParameters17ConnectionPointIdE
                0x0003e958                _ZN14JsonParameters2IdE
                0x0003e95c                _ZNSs4_Rep20_S_empty_rep_storageE@@GLIBCXX_3.4
                0x0003e96c                _ZN14JsonParameters15SettingDataTypeE
                0x0003e970                _ZN14JsonParameters16CustomDeviceNameE
                0x0003e974                _ZN14JsonParameters6DriverE
                0x0003e978                _ZN14JsonParameters16ProgramAutoStartE
                0x0003e97c                _ZN14JsonParameters10DriverTypeE
                0x0003e980                _ZN14JsonParameters12ErrorMessageE
                0x0003e984                _ZTIPKc@@CXXABI_1.3
                0x0003e994                _ZN14JsonParameters16DevicePropertiesE
                0x0003e998                _ZN14JsonParameters6TargetE
                0x0003e99c                _ZN14JsonParameters20CustomDeviceBaseTypeE
                0x0003e9a0                _ZN14JsonParameters18ProgramDescriptionE
                0x0003e9a8                _ZTVN10__cxxabiv117__class_type_infoE@@CXXABI_1.3
                0x0003e9d4                _ZN14JsonParameters22CustomDeviceAddOnPropsE
                0x0003e9d8                _ZN14JsonParameters8DeviceIdE
                0x0003e9dc                _ZN14JsonParameters8CommandsE
                0x0003e9e0                _ZN14JsonParameters5ValueE
                0x0003e9e4                _ZN14JsonParameters10ParametersE
                0x0003e9e8                _ZN14JsonParameters8DataTypeE
                0x0003e9ec                _ZN14JsonParameters9ProjectIdE
                0x0003e9f0                _ZN14JsonParameters9ProgramIdE
                0x0003e9f8                _ZTV7Command
                0x0003ea0c                _ZN14JsonParameters9PowerWireE
                0x0003ea10                stderr@@GLIBC_2.4
                0x0003ea14                _ZN14JsonParameters5WiresE
                0x0003ea18                _ZN14JsonParameters15OperationStatusE
                0x0003ea1c                _ZN14JsonParameters6SourceE
                0x0003ea20                _ZN14JsonParameters19DevicePropertyValueE
                0x0003ea24                _ZN14JsonParameters4NameE
                0x0003ea28                _ZN14JsonParameters15ParameterTargetE
                0x0003ea2c                _ZN14JsonParameters6EventsE
                0x0003ea30                _ZSt4cout@@GLIBCXX_3.4
                0x0003eac0                _ZTVN10__cxxabiv120__si_class_type_infoE@@CXXABI_1.3
                0x0003eaec                _ZN14JsonParameters11SettingNameE
                0x0003eaf0                _ZN14JsonParameters7DevicesE
                0x0003eaf4                _ZN14JsonParameters17DevicePropertyKeyE
                0x0003eaf8                _ZN14JsonParameters18DevicePropertyTypeE
                0x0003eafc                _ZN14JsonParameters15ParameterSourceE
                0x0003eb00                _ZN14JsonParameters12SettingValueE
                0x0003eb04                _ZN14JsonParameters8PinoutIdE
                0x0003eb08                _ZN14JsonParameters11ProgramNameE
                0x0003eb0c                _ZN14JsonParameters7MappingE
                0x0003eb10                stdout@@GLIBC_2.4
                0x0003eb14                _ZN14JsonParameters16ProgramIsRunningE
                0x0003eb18                _ZSt3cin@@GLIBCXX_3.4
                0x0003eba8                _ZN14JsonParameters10DeviceTypeE
                0x0003ebac                _ZN14JsonParameters16ConnectionPointsE
 *(.bss .bss.* .gnu.linkonce.b.*)
 .bss           0x0003ebb0        0x0 /usr/lib/gcc/arm-linux-gnueabihf/4.6/../../../arm-linux-gnueabihf/crt1.o
 .bss           0x0003ebb0        0x0 /usr/lib/gcc/arm-linux-gnueabihf/4.6/../../../arm-linux-gnueabihf/crti.o
 .bss           0x0003ebb0        0x1 /usr/lib/gcc/arm-linux-gnueabihf/4.6/crtbegin.o
 *fill*         0x0003ebb1        0x3 00
 .bss           0x0003ebb4        0x4 ./agilartRT.o
 .bss           0x0003ebb8      0x2b8 ./WebServer/mongoose.o
 .bss           0x0003ee70        0x8 ./WebServer/WebServer.o
                0x0003ee70                _ZN9WebServer8instanceE
 .bss           0x0003ee78        0x4 ./DaemonUtils/DaemonService.o
 .bss           0x0003ee7c        0x8 ./Common/ProgramManager.o
                0x0003ee7c                _ZN14ProgramManager8instanceE
 .bss           0x0003ee84        0x8 ./Common/UpcbJsonParser.o
                0x0003ee84                _ZN14UpcbJsonParser8instanceE
 .bss           0x0003ee8c        0x8 ./Common/Mappings/MappingManager.o
                0x0003ee8c                _ZN14MappingManager8instanceE
 .bss           0x0003ee94        0x4 ./Common/Mappings/PinoutMapping.o
 .bss           0x0003ee98        0x4 ./Common/Mappings/ProgramMapping.o
 .bss           0x0003ee9c        0x4 ./Common/Drivers/BaseDriversProvider.o
 .bss           0x0003eea0        0x8 ./Common/Drivers/DriversManager.o
                0x0003eea0                _ZN14DriversManager8instanceE
 .bss           0x0003eea8        0x4 ./Common/Drivers/PluggableDriversProvider.o
 .bss           0x0003eeac        0x4 ./Common/Devices/BaseDevicesProvider.o
 .bss           0x0003eeb0        0x8 ./Common/Devices/DeviceManager.o
                0x0003eeb0                _ZN13DeviceManager8instanceE
 .bss           0x0003eeb8        0x4 ./Common/Devices/PluggableDevicesProvider.o
 .bss           0x0003eebc        0x0 /usr/lib/arm-linux-gnueabihf/libc_nonshared.a(elf-init.oS)
 .bss           0x0003eebc        0x0 /usr/lib/gcc/arm-linux-gnueabihf/4.6/crtend.o
 .bss           0x0003eebc        0x0 /usr/lib/gcc/arm-linux-gnueabihf/4.6/../../../arm-linux-gnueabihf/crtn.o
 *(COMMON)
                0x0003eebc                . = ALIGN ((. != 0x0)?0x4:0x1)
                0x0003eebc                _bss_end__ = .
                0x0003eebc                __bss_end__ = .
                0x0003eebc                . = ALIGN (0x4)
                0x0003eebc                . = ALIGN (0x4)
                0x0003eebc                __end__ = .
                0x0003eebc                _end = .
                0x0003eebc                PROVIDE (end, .)
                0x0003eebc                . = DATA_SEGMENT_END (.)

.stab
 *(.stab)

.stabstr
 *(.stabstr)

.stab.excl
 *(.stab.excl)

.stab.exclstr
 *(.stab.exclstr)

.stab.index
 *(.stab.index)

.stab.indexstr
 *(.stab.indexstr)

.comment        0x00000000       0x43
 *(.comment)
 .comment       0x00000000       0x22 /usr/lib/gcc/arm-linux-gnueabihf/4.6/crtbegin.o
                                 0x23 (size before relaxing)
 .comment       0x00000000       0x23 ./agilartRT.o
 .comment       0x00000000       0x23 ./WebServer/mongoose.o
 .comment       0x00000000       0x23 ./WebServer/WebServer.o
 .comment       0x00000000       0x23 ./DaemonUtils/DaemonService.o
 .comment       0x00000000       0x23 ./Common/ProgramManager.o
 .comment       0x00000000       0x23 ./Common/UpcbJsonParser.o
 .comment       0x00000000       0x23 ./Common/Mappings/MappingManager.o
 .comment       0x00000000       0x23 ./Common/Mappings/PinoutMapping.o
 .comment       0x00000000       0x23 ./Common/Mappings/ProgramMapping.o
 .comment       0x00000000       0x23 ./Common/Drivers/BaseDriversProvider.o
 .comment       0x00000000       0x23 ./Common/Drivers/DriversManager.o
 .comment       0x00000000       0x23 ./Common/Drivers/PluggableDriversProvider.o
 .comment       0x00000000       0x23 ./Common/Devices/BaseDevicesProvider.o
 .comment       0x00000000       0x23 ./Common/Devices/DeviceManager.o
 .comment       0x00000000       0x23 ./Common/Devices/PluggableDevicesProvider.o
 .comment       0x00000022       0x21 /usr/lib/arm-linux-gnueabihf/libc_nonshared.a(elf-init.oS)
                                 0x22 (size before relaxing)
 .comment       0x00000000       0x23 /usr/lib/gcc/arm-linux-gnueabihf/4.6/crtend.o

.ARM.attributes
                0x00000000       0x2f
 .ARM.attributes
                0x00000000       0x2f /usr/lib/gcc/arm-linux-gnueabihf/4.6/../../../arm-linux-gnueabihf/crt1.o
 .ARM.attributes
                0x0000002f       0x31 /usr/lib/gcc/arm-linux-gnueabihf/4.6/../../../arm-linux-gnueabihf/crti.o
 .ARM.attributes
                0x00000060       0x31 /usr/lib/gcc/arm-linux-gnueabihf/4.6/crtbegin.o
 .ARM.attributes
                0x00000091       0x31 ./agilartRT.o
 .ARM.attributes
                0x000000c2       0x31 ./WebServer/mongoose.o
 .ARM.attributes
                0x000000f3       0x31 ./WebServer/WebServer.o
 .ARM.attributes
                0x00000124       0x31 ./DaemonUtils/DaemonService.o
 .ARM.attributes
                0x00000155       0x31 ./Common/ProgramManager.o
 .ARM.attributes
                0x00000186       0x31 ./Common/UpcbJsonParser.o
 .ARM.attributes
                0x000001b7       0x31 ./Common/Mappings/MappingManager.o
 .ARM.attributes
                0x000001e8       0x31 ./Common/Mappings/PinoutMapping.o
 .ARM.attributes
                0x00000219       0x31 ./Common/Mappings/ProgramMapping.o
 .ARM.attributes
                0x0000024a       0x31 ./Common/Drivers/BaseDriversProvider.o
 .ARM.attributes
                0x0000027b       0x31 ./Common/Drivers/DriversManager.o
 .ARM.attributes
                0x000002ac       0x31 ./Common/Drivers/PluggableDriversProvider.o
 .ARM.attributes
                0x000002dd       0x31 ./Common/Devices/BaseDevicesProvider.o
 .ARM.attributes
                0x0000030e       0x31 ./Common/Devices/DeviceManager.o
 .ARM.attributes
                0x0000033f       0x31 ./Common/Devices/PluggableDevicesProvider.o
 .ARM.attributes
                0x00000370       0x31 /usr/lib/arm-linux-gnueabihf/libc_nonshared.a(elf-init.oS)
 .ARM.attributes
                0x000003a1       0x31 /usr/lib/gcc/arm-linux-gnueabihf/4.6/crtend.o
 .ARM.attributes
                0x000003d2       0x31 /usr/lib/gcc/arm-linux-gnueabihf/4.6/../../../arm-linux-gnueabihf/crtn.o

.debug
 *(.debug)

.line
 *(.line)

.debug_srcinfo
 *(.debug_srcinfo)

.debug_sfnames
 *(.debug_sfnames)

.debug_aranges  0x00000000      0x458
 *(.debug_aranges)
 .debug_aranges
                0x00000000       0x28 ./agilartRT.o
 .debug_aranges
                0x00000028       0x30 ./WebServer/mongoose.o
 .debug_aranges
                0x00000058       0x78 ./WebServer/WebServer.o
 .debug_aranges
                0x000000d0       0x28 ./DaemonUtils/DaemonService.o
 .debug_aranges
                0x000000f8       0x98 ./Common/ProgramManager.o
 .debug_aranges
                0x00000190       0x38 ./Common/UpcbJsonParser.o
 .debug_aranges
                0x000001c8       0xc8 ./Common/Mappings/MappingManager.o
 .debug_aranges
                0x00000290       0x28 ./Common/Mappings/PinoutMapping.o
 .debug_aranges
                0x000002b8       0x28 ./Common/Mappings/ProgramMapping.o
 .debug_aranges
                0x000002e0       0x28 ./Common/Drivers/BaseDriversProvider.o
 .debug_aranges
                0x00000308       0x38 ./Common/Drivers/DriversManager.o
 .debug_aranges
                0x00000340       0x58 ./Common/Drivers/PluggableDriversProvider.o
 .debug_aranges
                0x00000398       0x28 ./Common/Devices/BaseDevicesProvider.o
 .debug_aranges
                0x000003c0       0x38 ./Common/Devices/DeviceManager.o
 .debug_aranges
                0x000003f8       0x60 ./Common/Devices/PluggableDevicesProvider.o

.debug_pubnames
 *(.debug_pubnames)

.debug_info     0x00000000    0xbd602
 *(.debug_info .gnu.linkonce.wi.*)
 .debug_info    0x00000000     0x425e ./agilartRT.o
 .debug_info    0x0000425e     0x7ac4 ./WebServer/mongoose.o
 .debug_info    0x0000bd22    0x1c244 ./WebServer/WebServer.o
 .debug_info    0x00027f66     0x43bf ./DaemonUtils/DaemonService.o
 .debug_info    0x0002c325    0x1bbe7 ./Common/ProgramManager.o
 .debug_info    0x00047f0c    0x19957 ./Common/UpcbJsonParser.o
 .debug_info    0x00061863    0x1fab9 ./Common/Mappings/MappingManager.o
 .debug_info    0x0008131c     0xaabc ./Common/Mappings/PinoutMapping.o
 .debug_info    0x0008bdd8     0x5128 ./Common/Mappings/ProgramMapping.o
 .debug_info    0x00090f00     0x1685 ./Common/Drivers/BaseDriversProvider.o
 .debug_info    0x00092585     0x8549 ./Common/Drivers/DriversManager.o
 .debug_info    0x0009aace     0xbce1 ./Common/Drivers/PluggableDriversProvider.o
 .debug_info    0x000a67af     0x184d ./Common/Devices/BaseDevicesProvider.o
 .debug_info    0x000a7ffc     0x8782 ./Common/Devices/DeviceManager.o
 .debug_info    0x000b077e     0xce84 ./Common/Devices/PluggableDevicesProvider.o

.debug_abbrev   0x00000000     0x80b9
 *(.debug_abbrev)
 .debug_abbrev  0x00000000      0x7d5 ./agilartRT.o
 .debug_abbrev  0x000007d5      0x50b ./WebServer/mongoose.o
 .debug_abbrev  0x00000ce0      0xb8b ./WebServer/WebServer.o
 .debug_abbrev  0x0000186b      0x877 ./DaemonUtils/DaemonService.o
 .debug_abbrev  0x000020e2      0xac8 ./Common/ProgramManager.o
 .debug_abbrev  0x00002baa      0x9f7 ./Common/UpcbJsonParser.o
 .debug_abbrev  0x000035a1      0xa9a ./Common/Mappings/MappingManager.o
 .debug_abbrev  0x0000403b      0x868 ./Common/Mappings/PinoutMapping.o
 .debug_abbrev  0x000048a3      0x7cf ./Common/Mappings/ProgramMapping.o
 .debug_abbrev  0x00005072      0x427 ./Common/Drivers/BaseDriversProvider.o
 .debug_abbrev  0x00005499      0x91b ./Common/Drivers/DriversManager.o
 .debug_abbrev  0x00005db4      0xaa9 ./Common/Drivers/PluggableDriversProvider.o
 .debug_abbrev  0x0000685d      0x493 ./Common/Devices/BaseDevicesProvider.o
 .debug_abbrev  0x00006cf0      0x932 ./Common/Devices/DeviceManager.o
 .debug_abbrev  0x00007622      0xa97 ./Common/Devices/PluggableDevicesProvider.o

.debug_line     0x00000000    0x17031
 *(.debug_line)
 .debug_line    0x00000000      0xf10 ./agilartRT.o
 .debug_line    0x00000f10     0x2000 ./WebServer/mongoose.o
 .debug_line    0x00002f10     0x3831 ./WebServer/WebServer.o
 .debug_line    0x00006741      0xbdc ./DaemonUtils/DaemonService.o
 .debug_line    0x0000731d     0x3395 ./Common/ProgramManager.o
 .debug_line    0x0000a6b2     0x3304 ./Common/UpcbJsonParser.o
 .debug_line    0x0000d9b6     0x2366 ./Common/Mappings/MappingManager.o
 .debug_line    0x0000fd1c      0xc9f ./Common/Mappings/PinoutMapping.o
 .debug_line    0x000109bb      0x9d7 ./Common/Mappings/ProgramMapping.o
 .debug_line    0x00011392      0x865 ./Common/Drivers/BaseDriversProvider.o
 .debug_line    0x00011bf7      0xcef ./Common/Drivers/DriversManager.o
 .debug_line    0x000128e6     0x155b ./Common/Drivers/PluggableDriversProvider.o
 .debug_line    0x00013e41      0xad7 ./Common/Devices/BaseDevicesProvider.o
 .debug_line    0x00014918      0xece ./Common/Devices/DeviceManager.o
 .debug_line    0x000157e6     0x184b ./Common/Devices/PluggableDevicesProvider.o

.debug_frame    0x00000000     0x252c
 *(.debug_frame)
 .debug_frame   0x00000000       0x48 ./agilartRT.o
 .debug_frame   0x00000048      0xaa4 ./WebServer/mongoose.o
 .debug_frame   0x00000aec      0x500 ./WebServer/WebServer.o
 .debug_frame   0x00000fec       0xec ./DaemonUtils/DaemonService.o
 .debug_frame   0x000010d8      0x47c ./Common/ProgramManager.o
 .debug_frame   0x00001554      0x198 ./Common/UpcbJsonParser.o
 .debug_frame   0x000016ec      0x438 ./Common/Mappings/MappingManager.o
 .debug_frame   0x00001b24      0x12c ./Common/Mappings/PinoutMapping.o
 .debug_frame   0x00001c50       0xb4 ./Common/Mappings/ProgramMapping.o
 .debug_frame   0x00001d04       0x60 ./Common/Drivers/BaseDriversProvider.o
 .debug_frame   0x00001d64      0x144 ./Common/Drivers/DriversManager.o
 .debug_frame   0x00001ea8      0x220 ./Common/Drivers/PluggableDriversProvider.o
 .debug_frame   0x000020c8       0x70 ./Common/Devices/BaseDevicesProvider.o
 .debug_frame   0x00002138      0x160 ./Common/Devices/DeviceManager.o
 .debug_frame   0x00002298      0x294 ./Common/Devices/PluggableDevicesProvider.o

.debug_str      0x00000000    0x3b1e8
 *(.debug_str)
 .debug_str     0x00000000     0x232b ./agilartRT.o
                               0x268e (size before relaxing)
 .debug_str     0x0000232b     0x17da ./WebServer/mongoose.o
                               0x1c74 (size before relaxing)
 .debug_str     0x00003b05     0x8ea9 ./WebServer/WebServer.o
                               0xba34 (size before relaxing)
 .debug_str     0x0000c9ae      0x19f ./DaemonUtils/DaemonService.o
                               0x25d6 (size before relaxing)
 .debug_str     0x0000cb4d     0x7be9 ./Common/ProgramManager.o
                               0xc32f (size before relaxing)
 .debug_str     0x00014736     0x78cd ./Common/UpcbJsonParser.o
                               0xa504 (size before relaxing)
 .debug_str     0x0001c003    0x12e28 ./Common/Mappings/MappingManager.o
                              0x1b0ef (size before relaxing)
 .debug_str     0x0002ee2b      0x1bb ./Common/Mappings/PinoutMapping.o
                               0x7ccc (size before relaxing)
 .debug_str     0x0002efe6       0xf6 ./Common/Mappings/ProgramMapping.o
                               0x3844 (size before relaxing)
 .debug_str     0x0002f0dc      0x16c ./Common/Drivers/BaseDriversProvider.o
                                0xbfb (size before relaxing)
 .debug_str     0x0002f248     0x2b2a ./Common/Drivers/DriversManager.o
                               0x52cf (size before relaxing)
 .debug_str     0x00031d72     0x3cb9 ./Common/Drivers/PluggableDriversProvider.o
                               0x81a9 (size before relaxing)
 .debug_str     0x00035a2b      0x177 ./Common/Devices/BaseDevicesProvider.o
                                0xcbc (size before relaxing)
 .debug_str     0x00035ba2     0x19e7 ./Common/Devices/DeviceManager.o
                               0x5386 (size before relaxing)
 .debug_str     0x00037589     0x3c5f ./Common/Devices/PluggableDevicesProvider.o
                               0x82e5 (size before relaxing)

.debug_loc      0x00000000    0x6b7e2
 *(.debug_loc)
 .debug_loc     0x00000000      0x10e ./agilartRT.o
 .debug_loc     0x0000010e     0x7df4 ./WebServer/mongoose.o
 .debug_loc     0x00007f02    0x1b659 ./WebServer/WebServer.o
 .debug_loc     0x0002355b      0xd89 ./DaemonUtils/DaemonService.o
 .debug_loc     0x000242e4    0x14434 ./Common/ProgramManager.o
 .debug_loc     0x00038718    0x1e22a ./Common/UpcbJsonParser.o
 .debug_loc     0x00056942     0x85d6 ./Common/Mappings/MappingManager.o
 .debug_loc     0x0005ef18     0x1cec ./Common/Mappings/PinoutMapping.o
 .debug_loc     0x00060c04      0x4b1 ./Common/Mappings/ProgramMapping.o
 .debug_loc     0x000610b5       0x71 ./Common/Drivers/BaseDriversProvider.o
 .debug_loc     0x00061126     0x1409 ./Common/Drivers/DriversManager.o
 .debug_loc     0x0006252f     0x30a4 ./Common/Drivers/PluggableDriversProvider.o
 .debug_loc     0x000655d3       0x84 ./Common/Devices/BaseDevicesProvider.o
 .debug_loc     0x00065657     0x14f6 ./Common/Devices/DeviceManager.o
 .debug_loc     0x00066b4d     0x4c95 ./Common/Devices/PluggableDevicesProvider.o

.debug_macinfo  0x00000000    0xf6b92
 *(.debug_macinfo)
 .debug_macinfo
                0x00000000    0x12322 ./agilartRT.o
 .debug_macinfo
                0x00012322    0x14eb6 ./WebServer/mongoose.o
 .debug_macinfo
                0x000271d8    0x11104 ./WebServer/WebServer.o
 .debug_macinfo
                0x000382dc    0x11cc4 ./DaemonUtils/DaemonService.o
 .debug_macinfo
                0x00049fa0    0x115e6 ./Common/ProgramManager.o
 .debug_macinfo
                0x0005b586    0x1011d ./Common/UpcbJsonParser.o
 .debug_macinfo
                0x0006b6a3    0x100f9 ./Common/Mappings/MappingManager.o
 .debug_macinfo
                0x0007b79c     0xe519 ./Common/Mappings/PinoutMapping.o
 .debug_macinfo
                0x00089cb5     0xe532 ./Common/Mappings/ProgramMapping.o
 .debug_macinfo
                0x000981e7     0xdd21 ./Common/Drivers/BaseDriversProvider.o
 .debug_macinfo
                0x000a5f08     0xebcf ./Common/Drivers/DriversManager.o
 .debug_macinfo
                0x000b4ad7    0x112a0 ./Common/Drivers/PluggableDriversProvider.o
 .debug_macinfo
                0x000c5d77     0xfe9b ./Common/Devices/BaseDevicesProvider.o
 .debug_macinfo
                0x000d5c12     0xfec2 ./Common/Devices/DeviceManager.o
 .debug_macinfo
                0x000e5ad4    0x110be ./Common/Devices/PluggableDevicesProvider.o

.debug_weaknames
 *(.debug_weaknames)

.debug_funcnames
 *(.debug_funcnames)

.debug_typenames
 *(.debug_typenames)

.debug_varnames
 *(.debug_varnames)

.debug_pubtypes
 *(.debug_pubtypes)

.debug_ranges   0x00000000    0x17438
 *(.debug_ranges)
 .debug_ranges  0x00000000       0x90 ./agilartRT.o
 .debug_ranges  0x00000090     0x1478 ./WebServer/mongoose.o
 .debug_ranges  0x00001508     0x5288 ./WebServer/WebServer.o
 .debug_ranges  0x00006790      0x330 ./DaemonUtils/DaemonService.o
 .debug_ranges  0x00006ac0     0x5430 ./Common/ProgramManager.o
 .debug_ranges  0x0000bef0     0x5460 ./Common/UpcbJsonParser.o
 .debug_ranges  0x00011350     0x2c58 ./Common/Mappings/MappingManager.o
 .debug_ranges  0x00013fa8      0x768 ./Common/Mappings/PinoutMapping.o
 .debug_ranges  0x00014710      0x130 ./Common/Mappings/ProgramMapping.o
 .debug_ranges  0x00014840       0x48 ./Common/Drivers/BaseDriversProvider.o
 .debug_ranges  0x00014888      0x5c8 ./Common/Drivers/DriversManager.o
 .debug_ranges  0x00014e50      0xca0 ./Common/Drivers/PluggableDriversProvider.o
 .debug_ranges  0x00015af0       0x48 ./Common/Devices/BaseDevicesProvider.o
 .debug_ranges  0x00015b38      0x5f8 ./Common/Devices/DeviceManager.o
 .debug_ranges  0x00016130     0x1308 ./Common/Devices/PluggableDevicesProvider.o

.gnu.attributes
 *(.gnu.attributes)

.note.gnu.arm.ident
 *(.note.gnu.arm.ident)

/DISCARD/
 *(.note.GNU-stack)
 *(.gnu_debuglink)
 *(.gnu.lto_*)
OUTPUT(agilart-runtime elf32-littlearm)
